(dp1
S''
I0
sVraining
p2
I1523
sVpedestrian crossing
p3
I1841
sVhats
p4
I1361
sVbear
p5
I2914
sVswirls
p6
I2244
sVyellow
p7
I759
sVprotest
p8
I2979
sVwoods
p9
I1
sVsleep
p10
I2936
sVtrash can
p11
I2
sVhanging
p12
I3
sVonions
p13
I3091
sVzig zag
p14
I2543
sVlace
p15
I3033
sVtrolley
p16
I1362
sVfeeding
p17
I2937
sVchinese
p18
I2245
sVelectricity
p19
I760
sVswan
p20
I2351
sVcocker spaniel
p21
I570
sVbike
p22
I1716
sVunder
p23
I396
sVdog show
p24
I1363
sVflip flops
p25
I1903
sVwreath
p26
I981
sVby window
p27
I188
sVdeli
p28
I761
sVblanket
p29
I982
sVdell
p30
I762
sVwomen's
p31
I983
sVhome plate
p32
I984
sVfireplace
p33
I2940
sVicing
p34
I1564
sVblue and pink
p35
I1159
sVschool
p36
I571
sVbaking
p37
I1905
sVsnowflakes
p38
I1160
sVparrot
p39
I2941
sVwooden
p40
I4
sVformica
p41
I2137
sVups
p42
I1161
sVtriumph
p43
I1718
sVclothes
p44
I1162
sVcan't see
p45
I1906
sVbicycle
p46
I2138
sVbus driver
p47
I1538
sVtired
p48
I2345
sVphones
p49
I2544
sVrailing
p50
I2343
sVfeathers
p51
I572
sVjapanese
p52
I2743
sVfrosted
p53
I408
sVchef
p54
I1719
sVsecond
p55
I2348
sVstreet
p56
I1364
sVchairs
p57
I1709
sVair
p58
I1747
sVpanda
p59
I190
sVon counter
p60
I2203
sVblue
p61
I411
sVrope
p62
I1842
sVstraight ahead
p63
I2139
sVat camera
p64
I2077
sVcooking
p65
I5
sVtow truck
p66
I2745
sVhazy
p67
I1907
sVlights
p68
I2747
sVabove
p69
I986
sVsideways
p70
I1978
sVnew
p71
I1163
sVnet
p72
I1164
sVdisney
p73
I1365
sVhelmets
p74
I390
sVpancakes
p75
I2748
sVwakeboard
p76
I391
sVmen
p77
I392
sVhundreds
p78
I1366
sVon train
p79
I2749
sVremote control
p80
I1166
sVchina
p81
I6
sVparking lot
p82
I2608
sVbehind woman
p83
I764
sV100
p84
I1908
sVski slope
p85
I192
sV106
p86
I1910
sVmozzarella
p87
I420
sVdry
p88
I1911
sVkids
p89
I7
sVluggage
p90
I574
sVleaves
p91
I575
sVqantas
p92
I663
sVsmoke
p93
I987
sVmilitary
p94
I765
sVjoshua
p95
I393
sVbike rack
p96
I8
sVstraw
p97
I2140
sVstrap
p98
I426
sVsliced
p99
I394
sVjackets
p100
I395
sVon phone
p101
I9
sVlandscape
p102
I2750
sVstar wars
p103
I2943
sVplow
p104
I193
sVheadband
p105
I1981
sVarmy
p106
I2751
sValligator
p107
I1721
sVsweater
p108
I194
sVcoins
p109
I195
sVsuit
p110
I1659
sVmusic
p111
I10
sVcomcast
p112
I196
sVriding horses
p113
I1525
sVvery fast
p114
I2752
sVstrike
p115
I1526
sVdairy
p116
I665
sVblueberry
p117
I2545
sVram
p118
I2958
sVfake
p119
I1569
sVsony ericsson
p120
I2753
sVstreet name
p121
I1722
sV99
p122
I2352
sVto left
p123
I576
sVwarm
p124
I1912
sVfor fun
p125
I397
sVsiblings
p126
I3034
sVorganic
p127
I731
sVme
p128
I1367
sV1990
p129
I197
sVroom
p130
I398
sVwork
p131
I2546
sVroof
p132
I399
sVblack and blue
p133
I1368
sVplunger
p134
I1528
sVdecorative
p135
I2944
sVit's not
p136
I2355
sVflorida
p137
I2709
sVfloor
p138
I2391
sVindia
p139
I2547
sVhoney
p140
I2754
sVgreen beans
p141
I1529
sVcaution
p142
I1530
sVveggies
p143
I1723
sVwoodpecker
p144
I2945
sVgarbage
p145
I2495
sVmotion
p146
I3002
sVend
p147
I1369
sV4 feet
p148
I2755
sVin suitcase
p149
I2946
sVtravel
p150
I11
sVdrying
p151
I2356
sVnuts
p152
I198
sV6 inches
p153
I1531
sVhappy birthday
p154
I1724
sVmachine
p155
I767
sVfar
p156
I3035
sVbricks
p157
I2211
sVbunt
p158
I1972
sVboats
p159
I989
sVgate
p160
I2948
sVchase
p161
I2487
sVbeach
p162
I1725
sVcharging
p163
I1370
sVpizza
p164
I1726
sVgaming
p165
I768
sVbriefcase
p166
I2756
sVcadillac
p167
I2757
sVladder
p168
I199
sVafter
p169
I1727
sVlab
p170
I2548
sVjumping
p171
I2142
sVon skateboard
p172
I1435
sVcell phone
p173
I200
sVvase
p174
I1904
sVarch
p175
I201
sVfedora
p176
I1845
sVman on right
p177
I2758
sVin bowl
p178
I1371
sVcroissant
p179
I1372
sVharley
p180
I2143
sVtulip
p181
I12
sVcheckerboard
p182
I400
sVgreen
p183
I990
sVjungle
p184
I465
sVambulance
p185
I2550
sV1 foot
p186
I202
sV1000
p187
I1419
sVwing
p188
I770
sVwind
p189
I771
sVwine
p190
I772
sVsalon
p191
I1730
sVtoaster
p192
I2378
sVoffice
p193
I2551
sVdeck
p194
I2760
sVwalgreens
p195
I1731
sVover
p196
I2949
sVbaseball uniform
p197
I773
sVlondon
p198
I1963
sVoven
p199
I2005
sVkeyboard
p200
I1168
sVplastic wrap
p201
I2358
sVjapan
p202
I1732
sVbefore
p203
I401
sVchihuahua
p204
I1914
sV4 inches
p205
I2553
sV2:00
p206
I472
sVbackpack
p207
I2359
sVavocado
p208
I1733
sV2:05
p209
I577
sVwriting
p210
I2950
sVnew orleans
p211
I774
sV400
p212
I578
sVsavory
p213
I1734
sV3:15
p214
I579
sV3:10
p215
I580
sVswans
p216
I2996
sVcoffee
p217
I203
sVcarnation
p218
I1389
sV1 in back
p219
I204
sVwhite and blue
p220
I205
sVsafe
p221
I206
sVband
p222
I1735
sVmercedes benz
p223
I1374
sVgiraffe
p224
I991
sVglazed
p225
I402
sVsilver
p226
I775
sVbank
p227
I1736
sVbread
p228
I2554
sVshadows
p229
I2145
sV1.00
p230
I2835
sVbrushing teeth
p231
I2360
sVrocky
p232
I1737
sVpotatoes
p233
I2146
sVon tray
p234
I992
sVwii remotes
p235
I482
sVl
I207
sVdetroit
p236
I581
sVrocks
p237
I1738
sVside of road
p238
I2761
sVarrow
p239
I13
sVcrocs
p240
I1739
sVbone
p241
I1917
sVlying down
p242
I993
sVhanger
p243
I2951
sVturn right
p244
I208
sVunder table
p245
I1918
sVspider
p246
I2361
sVbowls
p247
I776
sVwaffle
p248
I2147
sVbritish airways
p249
I2879
sVblueberries
p250
I2642
sVmagnets
p251
I2024
sVnavy
p252
I1919
sVlogo
p253
I1741
sVdawn
p254
I1169
sVin vase
p255
I994
sVenclosure
p256
I1170
sVlarge
p257
I1616
sVrv
p258
I1534
sVlemons
p259
I2034
sVdriving
p260
I2952
sVmotel
p261
I2148
sVcameras
p262
I2556
sVdiesel
p263
I2557
sV9:25
p264
I3038
sVsurprise
p265
I1171
sVmillions
p266
I1421
sVsliding
p267
I995
sVgreen and orange
p268
I2953
sV3:50
p269
I2205
sVarizona
p270
I2954
sVturning
p271
I2762
sVbarrier
p272
I210
sV9:20
p273
I3039
sVblue and green
p274
I2955
sVfree
p275
I2956
sVascending
p276
I403
sVsmall
p277
I583
sVusing laptop
p278
I877
sVhoodie
p279
I404
sVlacoste
p280
I2907
sVblinders
p281
I405
sVtree branch
p282
I211
sVon chair
p283
I212
sVshelves
p284
I2363
sVatv
p285
I2364
sVbears
p286
I2711
sVsoda
p287
I584
sVmoving
p288
I3070
sVcleaning
p289
I2675
sVbehind clouds
p290
I1172
sVelmo
p291
I1535
sVin street
p292
I406
sVveggie
p293
I2365
sVon pole
p294
I1536
sVlettuce
p295
I407
sVchevron
p296
I15
sVfire truck
p297
I585
sVcomforter
p298
I1920
sVscissors
p299
I2957
sVthick
p300
I1742
sVtusks
p301
I2611
sVtuna
p302
I2380
sVhood
p303
I1173
sVbasketball
p304
I1537
sVhydrant
p305
I898
sVlego
p306
I777
sVtop
p307
I501
sVgirls
p308
I1174
sVtow
p309
I2150
sVboating
p310
I2764
sVguitar hero
p311
I778
sVhollywood
p312
I1921
sVjohn
p313
I213
sVdogs
p314
I214
sVkiwi
p315
I2558
sVurban
p316
I503
sVceiling
p317
I1375
sVon grass
p318
I215
sVbacon
p319
I2346
sVgym
p320
I1922
sVserve
p321
I1376
sVblue jay
p322
I1175
sVno left turn
p323
I1176
sVwestern
p324
I1377
sVcereal
p325
I216
sVcrosstown
p326
I217
sVschnauzer
p327
I587
sVdistance
p328
I1924
sVtarget
p329
I2560
sVtree
p330
I1539
sVfrench fries
p331
I1379
sVshower
p332
I1540
sViron
p333
I2561
sVman on left
p334
I780
sVbeard
p335
I2713
sVpersian
p336
I2998
sVbridge
p337
I846
sVdonkey
p338
I1380
sVfashion
p339
I1381
sVvery big
p340
I517
sVgiraffes
p341
I218
sVboston
p342
I2366
sVmodern
p343
I1925
sVginger
p344
I409
sVtalking
p345
I1382
sVshell
p346
I2315
sVno grass
p347
I3071
sVmint
p348
I1926
sValive
p349
I2926
sVcactus
p350
I2744
sVconcrete
p351
I1649
sVbleachers
p352
I1541
sVsan diego
p353
I410
sVsnow
p354
I2154
sVin stands
p355
I782
sVchest
p356
I2767
sV101
p357
I1909
sVshelf
p358
I2316
sVcircles
p359
I2562
sVgravy
p360
I219
sVshallow
p361
I1497
sVthumb
p362
I2406
sVzebras
p363
I783
sV5 ft
p364
I2349
sV6 feet
p365
I3098
sVvictoria
p366
I784
sVmario
p367
I412
sVno cat
p368
I413
sVgermany
p369
I220
sVx
I2668
sVm
I1929
sVdog
p370
I1930
sVcamo
p371
I1543
sVpineapple
p372
I2155
sVqueen
p373
I2961
sVbirthday party
p374
I2934
sVnorth america
p375
I2962
sVchandelier
p376
I2564
sVradio
p377
I2156
sVasia
p378
I2746
sVfork and knife
p379
I589
sVrecliner
p380
I786
sVtoast
p381
I2565
sVbusy
p382
I2367
sVon bike
p383
I2566
sVmenu
p384
I787
sVtrain tracks
p385
I997
sVon right
p386
I17
sVsugar
p387
I2505
sVcelery
p388
I415
sVbush
p389
I2368
sVrice
p390
I18
sVgoalie
p391
I998
sVrectangle
p392
I221
sVplate
p393
I19
sVtiles
p394
I1932
sVsunglasses
p395
I1383
sVwide
p396
I3007
sVgirl on right
p397
I2158
sVhonda
p398
I1544
sVstop
p399
I935
sVdc
p400
I999
sVcardinals
p401
I1743
sVpocket
p402
I141
sVamazon
p403
I2160
sVwatermelon
p404
I416
sVroundabout
p405
I1327
sVcushion
p406
I2369
sVwedding
p407
I590
sV15
p408
I1991
sVrelish
p409
I1545
sVbeads
p410
I591
sVbar
p411
I2771
sVsailing
p412
I1993
sVnoon
p413
I2435
sVrowing
p414
I2964
sV16
p415
I1994
sV2:15
p416
I2569
sVbag
p417
I2773
sVbad
p418
I2774
sVgrilled
p419
I1934
sVsteak
p420
I2570
sVsteam
p421
I2571
sV90
p422
I2354
sVears
p423
I417
sVplaystation
p424
I1178
sV10:05
p425
I1038
sVhuman
p426
I1944
sVfair
p427
I788
sVliquor
p428
I1384
sVlemonade
p429
I1000
sV10:00
p430
I1039
sVeach other
p431
I2161
sVnoodles
p432
I2162
sVgame controller
p433
I2370
sVbrazil
p434
I2775
sVcat and dog
p435
I185
sVglass
p436
I2353
sVlots
p437
I20
sVaway
p438
I223
sVsail
p439
I2776
sVthey aren't
p440
I1385
sVshaved
p441
I2777
sVsalt and pepper
p442
I2371
sVwetsuit
p443
I1936
sVmud
p444
I592
sVmug
p445
I593
sVolympics
p446
I2779
sVfinger
p447
I594
sVyogurt
p448
I1547
sVlooking out window
p449
I789
sVlaying down
p450
I1179
sVherding
p451
I595
sVnever
p452
I1165
sVnature
p453
I21
sVmetal
p454
I2960
sVlotion
p455
I418
sVon top
p456
I1937
sVloading
p457
I1465
sVplaying game
p458
I224
sVskull and crossbones
p459
I225
sVnews
p460
I596
sVbehind fence
p461
I597
sVkitchen
p462
I226
sVaccident
p463
I2372
sVcow
p464
I1001
sVcountry
p465
I1548
sVyamaha
p466
I234
sVon bench
p467
I1745
sVplayers
p468
I2968
sVprotection
p469
I1181
sVthrowing frisbee
p470
I23
sVgive way
p471
I843
sVflying kite
p472
I1946
sVno hat
p473
I2573
sVt shirt and jeans
p474
I599
sVsheepdog
p475
I2373
sVlegs
p476
I779
sVvaio
p477
I791
sVzebra and giraffe
p478
I1587
sV2nd
p479
I2374
sVtowels
p480
I1386
sVblending
p481
I2375
sVblonde
p482
I24
sVgrazing
p483
I1549
sVconference
p484
I600
sVlighthouse
p485
I2376
sVcardboard
p486
I1167
sVbeef
p487
I1387
sVhay
p488
I27
sVchrome
p489
I792
sVon couch
p490
I2574
sVparsley
p491
I419
sV1 4
p492
I2163
sVbeer
p493
I1388
sVgrapefruit
p494
I2492
sVstadium
p495
I1550
sVbasil
p496
I421
sVprivate
p497
I2386
sVwarmth
p498
I1746
sVdots
p499
I1551
sVlife
p500
I793
sVbanana peel
p501
I1552
sVsprite
p502
I2164
sVmushroom
p503
I976
sVnot sure
p504
I1553
sVlift
p505
I794
sVcoffee table
p506
I2165
sVchild
p507
I795
sVcatch
p508
I2970
sVbunny
p509
I1748
sVchili
p510
I796
sV3 feet
p511
I227
sVstuffed animals
p512
I2449
sVorange and blue
p513
I1182
sVtank
p514
I1183
sVn
I602
sVlizard
p515
I985
sVonion rings
p516
I228
sVski lift
p517
I2576
sVlife jacket
p518
I25
sVstopping
p519
I2166
sVabove toilet
p520
I797
sVbalance
p521
I2780
sVhot sauce
p522
I422
sVcylinder
p523
I229
sVcane
p524
I423
sVmexico
p525
I2781
sVsticker
p526
I2577
sVsushi
p527
I2782
sVplayer
p528
I2377
sVtissue
p529
I230
sVcone
p530
I231
sVin
p531
I1184
sVcook
p532
I2187
sVseattle
p533
I2783
sVmouse
p534
I1939
sVin air
p535
I1728
sVbottles
p536
I1185
sVemergency
p537
I128
sVnike
p538
I603
sVspeed limit
p539
I1554
sVgray and red
p540
I798
sVwhite and green
p541
I1223
sVbabies
p542
I799
sVbig
p543
I2875
sVvegetable
p544
I2784
sVplates
p545
I1002
sVseveral
p546
I1390
sVskateboards
p547
I1652
sVwheel
p548
I232
sVbird feeder
p549
I800
sVpublic market center
p550
I582
sVrail
p551
I1003
sVrain
p552
I1004
sVhand
p553
I233
sV9:55
p554
I2167
sVgarlic
p555
I1940
sVsoccer ball
p556
I1391
sVkia
p557
I1941
sVon
p558
I2507
sVkid
p559
I1942
sVbutter
p560
I1943
sVdishes
p561
I157
sVcondiments
p562
I1005
sVocean
p563
I604
sVhispanic
p564
I1749
sVwashington monument
p565
I2971
sVmother
p566
I2168
sVhearts
p567
I2972
sVpooping
p568
I996
sVleft
p569
I2785
sVamerican flag
p570
I1555
sVphotographer
p571
I2579
sVphoto
p572
I1750
sVlaptop
p573
I2973
sVgoggles
p574
I2578
sV50 feet
p575
I1186
sVyes
p576
I425
sVkayaking
p577
I2651
sVhills
p578
I1006
sVsunflower
p579
I1187
sVelm
p580
I598
sVin front
p581
I1945
sVcherry
p582
I605
sVboot
p583
I3125
sVhilly
p584
I1007
sVroast beef
p585
I801
sVmain street
p586
I802
sVboard
p587
I1751
sVeasy
p588
I2382
sVeast
p589
I2383
sVhat
p590
I28
sVto get to other side
p591
I29
sVmayo
p592
I2580
sVski pole
p593
I1008
sVwii controllers
p594
I607
sVboxes
p595
I1752
sVboxer
p596
I1753
sVdescending
p597
I608
sVbackground
p598
I2786
sV12:35
p599
I30
sV6:05
p600
I2384
sVshadow
p601
I31
sVcatching frisbee
p602
I2974
sV6:00
p603
I2385
sV12:30
p604
I32
sVcoffee maker
p605
I609
sV59
p606
I2169
sVcooler
p607
I235
sVlily
p608
I1695
sVgrizzly
p609
I1009
sV56
p610
I2172
sVkitesurfing
p611
I427
sV50
p612
I2174
sV53
p613
I2175
sV52
p614
I2176
sVtrain car
p615
I803
sVpavement
p616
I804
sVmickey mouse
p617
I1818
sVsteps
p618
I805
sVnight
p619
I236
sVsecurity
p620
I1010
sVcirrus
p621
I237
sVantique
p622
I1011
sVbutterfly
p623
I2416
sVright
p624
I2387
sVpetting
p625
I2177
sVpeople
p626
I806
sVhe's not
p627
I1949
sVcrown
p628
I33
sVdead
p629
I428
sVcrows
p630
I34
sVdining room
p631
I1188
sV2:20
p632
I1394
sVtie dye
p633
I1012
sVorchid
p634
I2582
sV10 years
p635
I429
sVbottom
p636
I35
sVpurple
p637
I1013
sVfox
p638
I807
sVham and cheese
p639
I430
sVfog
p640
I808
sVcnn
p641
I2975
sV3:30
p642
I1396
sVskateboarder
p643
I431
sVchristmas
p644
I1397
sVtrunk
p645
I2645
sVcord
p646
I1398
sVkhaki
p647
I610
sVk
I1524
sVcorn
p648
I1399
sV34
p649
I2096
sVlamps
p650
I2179
sVpost
p651
I1754
sVdalmatian
p652
I2180
sVbenches
p653
I37
sVcowboy
p654
I2181
sVmeow
p655
I2787
sVo
I2389
sVdinner
p656
I611
sVafternoon
p657
I433
sVparking garage
p658
I880
sVoctopus
p659
I1755
sVhospital
p660
I2141
sVindians
p661
I988
sVtoothpicks
p662
I612
sVmantle
p663
I1014
sVtinkerbell
p664
I2788
sVselfie
p665
I434
sVfern
p666
I613
sVdown
p667
I435
sVbats
p668
I614
sVold
p669
I2388
sVparade
p670
I2680
sVpalm tree
p671
I1590
sVfabric
p672
I38
sVtennis
p673
I436
sVsunlight
p674
I615
sVvirgin
p675
I2182
sVdonut shop
p676
I2789
sVtowing
p677
I616
sVwax
p678
I1756
sVwhite and yellow
p679
I1190
sVover easy
p680
I1950
sVkiting
p681
I617
sVwar
p682
I1757
sVhappy
p683
I809
sVfork
p684
I1040
sVhead
p685
I1400
sVmedium
p686
I1401
sVyellow and white
p687
I1191
sVsnowy
p688
I2584
sVbatman
p689
I437
sVtigers
p690
I810
sVconverse
p691
I1758
sVlanding
p692
I438
sVford
p693
I1192
sVwireless
p694
I2583
sVbags
p695
I2827
sVheat
p696
I1402
sVbottom right
p697
I238
sVcat food
p698
I1044
sVsailboats
p699
I239
sVturtle
p700
I2409
sVdump
p701
I3058
sVcongratulations
p702
I39
sVslope
p703
I2395
sVplaying soccer
p704
I2178
sVinside
p705
I1557
sVtrash
p706
I3032
sV7:10
p707
I2586
sV2:25
p708
I1393
sVlays
p709
I811
sVpassenger
p710
I40
sVsticks
p711
I1193
sVclassic
p712
I1194
sVumpire
p713
I2588
sVcleats
p714
I1431
sVhungry
p715
I2207
sVdiamond
p716
I2851
sVon sign
p717
I2390
sVpink and white
p718
I1559
sVplaying video game
p719
I708
sVmuffins
p720
I439
sVship
p721
I1195
sVtriangles
p722
I42
sVno
p723
I1403
sVny
p724
I1404
sVsetting
p725
I618
sV7:45
p726
I2939
sVholding
p727
I2589
sVdigital
p728
I1196
sVtie
p729
I2976
sVroll
p730
I43
sVwhipped cream
p731
I2393
sVevergreen
p732
I1405
sVpicture
p733
I620
sVthumbs up
p734
I2590
sV4 way
p735
I812
sVhandicap
p736
I440
sVcenter
p737
I1346
sVpurple and white
p738
I2183
sVfell
p739
I1067
sVred sox
p740
I1197
sVjones
p741
I2791
sVtugboat
p742
I2591
sVyounger
p743
I2977
sVwii remote
p744
I643
sVphone
p745
I707
sVyacht
p746
I2184
sVjacket
p747
I441
sVteeth
p748
I1952
sVserious
p749
I2978
sVbackward
p750
I1406
sVadult
p751
I1913
sVpeacock
p752
I813
sVcessna
p753
I1953
sVriding bikes
p754
I442
sVchain
p755
I44
sVplaying video games
p756
I2911
sVunder armour
p757
I2963
sVskis
p758
I1198
sVfocus
p759
I2186
sVsilverware
p760
I240
sVskate
p761
I1560
sVdaytime
p762
I1189
sVskiing
p763
I1561
sVbaseball field
p764
I2605
sVchair
p765
I45
sVtoothpick
p766
I1016
sVmilk
p767
I2792
sVlong time
p768
I622
sVvenice
p769
I814
sVgrape
p770
I1017
sVshow
p771
I2000
sVfather
p772
I443
sVprom
p773
I3073
sVcrates
p774
I46
sV0
I444
sVbicycles
p775
I1563
sVbrushing his teeth
p776
I2646
sVride
p777
I2699
sVsouthwest
p778
I1760
sVbrown
p779
I2594
sVsmartphone
p780
I2647
sVstring
p781
I1199
sVon dresser
p782
I766
sVbanana bread
p783
I1761
sVkitten
p784
I1762
sVkitchenaid
p785
I1763
sVcool
p786
I2188
sVdim
p787
I2793
sVon wall
p788
I1408
sVclouds
p789
I681
sVlimes
p790
I2794
sVfreightliner
p791
I2249
sVposts
p792
I623
sVgun
p793
I241
sVcloudy
p794
I624
sVmagnet
p795
I1200
sVp
I1018
sVhorseback riding
p796
I242
sVteal
p797
I817
sVteam
p798
I818
sVsidewalk
p799
I2596
sVdip
p800
I2796
sVround
p801
I445
sVseaweed
p802
I3100
sVslow down
p803
I243
sVpork
p804
I625
sVheinz
p805
I1409
sVhtc
p806
I2597
sV20 ft
p807
I3074
sVcollage
p808
I1565
sVbedroom
p809
I2522
sVrectangles
p810
I3041
sVsign
p811
I1566
sV11:45
p812
I47
sVshirts
p813
I48
sV12:28
p814
I1955
sVsoldiers
p815
I2719
sVharry potter
p816
I130
sV12:25
p817
I1956
sVchicken
p818
I3101
sV12:20
p819
I1957
sVdrinks
p820
I2981
sVcargo
p821
I1764
sVdog food
p822
I1092
sVstands
p823
I2982
sVkite string
p824
I1958
sVwildebeest
p825
I1765
sVmall
p826
I2454
sVuniform
p827
I1766
sVcurrent
p828
I819
sVfalling
p829
I2398
sVin hand
p830
I2819
sVgazebo
p831
I1959
sVtransportation
p832
I1201
sVon man
p833
I2983
sVno smoking
p834
I820
sVmakeup
p835
I1960
sVfrench
p836
I2797
sVwater
p837
I2984
sV2:30
p838
I244
sVdon't walk
p839
I2399
sV2:35
p840
I245
sVfrosting
p841
I446
sVteacher
p842
I246
sVeaston
p843
I1202
sV3:25
p844
I247
sVboy
p845
I448
sVmale
p846
I2456
sV3:20
p847
I248
sVhealthy
p848
I2190
sVbus station
p849
I2400
sVname tag
p850
I2986
sVbow
p851
I449
sVcinnamon
p852
I1410
sVbob
p853
I450
sVpillow
p854
I249
sVnowhere
p855
I2494
sVeasyjet
p856
I1961
sVpetting horse
p857
I1568
sVlove
p858
I821
sVhiking
p859
I1020
sVtuxedo
p860
I626
sVshark
p861
I1411
sVuphill
p862
I251
sVsnowboard
p863
I1021
sVno light
p864
I2191
sVsun hat
p865
I451
sV1st
p866
I1412
sVplaying wii
p867
I2599
sVpony
p868
I2251
sVmarket
p869
I2600
sV30 mph
p870
I2682
sVsunbathing
p871
I822
sVworking
p872
I340
sVbirthday cake
p873
I2614
sV10:15
p874
I2192
sVwicker
p875
I1570
sVangry
p876
I1571
sV10:10
p877
I2193
sVsports
p878
I709
sV4th of july
p879
I1392
sV1 in middle
p880
I627
sVwood
p881
I3010
sViphone
p882
I2194
sVsunflowers
p883
I1500
sVsoftball
p884
I2255
sVangels
p885
I2601
sVconductor
p886
I2988
sVclub
p887
I2602
sVphillies
p888
I2799
sVfanta
p889
I2820
sVoregon
p890
I2403
sVchocolate
p891
I1414
sVdowntown
p892
I2800
sVriding
p893
I166
sVblinds
p894
I2421
sVfly
p895
I2801
sVibm
p896
I1478
sVtokyo
p897
I2802
sVheineken
p898
I823
sVcap
p899
I1769
sVcat
p900
I1770
sVwallet
p901
I1203
sVcan
p902
I1771
sVferry
p903
I2989
sVpickle
p904
I628
sVurinals
p905
I3044
sVheart
p906
I1772
sVnursing
p907
I629
sVmirrors
p908
I49
sVtaking photo
p909
I1415
sVconfused
p910
I1964
sVsoup
p911
I2803
sVparachute
p912
I50
sVdrawer
p913
I2804
sVpizza box
p914
I452
sVpond
p915
I2252
sVblack and brown
p916
I630
sVclothing
p917
I1773
sVwetsuits
p918
I1489
sVpink
p919
I1204
sVrays
p920
I1205
sVwinter
p921
I824
sVto catch frisbee
p922
I1206
sVsailboat
p923
I631
sVwatching
p924
I2321
sVbrand
p925
I2930
sVmagazine
p926
I432
sVpine
p927
I1207
sV1
I2195
sV7:00
p928
I1416
sVcardinal
p929
I2196
sV7:05
p930
I1417
sVelephant
p931
I825
sVtile
p932
I1208
sVphotography
p933
I2913
sVunder sink
p934
I1573
sVlaundry
p935
I1874
sVmat
p936
I1966
sVinformation
p937
I884
sVflat screen
p938
I252
sVon his head
p939
I2992
sVman in middle
p940
I453
sVducati
p941
I1776
sVproduce
p942
I253
sVtoilet paper
p943
I1778
sVvases
p944
I254
sVfloral
p945
I2993
sVgreen and black
p946
I2852
sVtablecloth
p947
I454
sVman
p948
I1968
sVclassroom
p949
I2994
sVsurfing
p950
I51
sVnatural
p951
I1574
sVneck
p952
I1969
sVcandles
p953
I1023
sVwheelchair
p954
I826
sVplacemat
p955
I2404
sVcorona
p956
I255
sVdaisies
p957
I2883
sVmango
p958
I52
sVin box
p959
I85
sVafrican
p960
I2807
sVbasket
p961
I455
sVtall
p962
I1970
sV2 years
p963
I632
sVbunk
p964
I2947
sVblue team
p965
I1779
sVcute
p966
I1210
sVserving
p967
I256
sVshoes
p968
I456
sVhaircut
p969
I1024
sVyears
p970
I53
sVstability
p971
I1211
sVpizza cutter
p972
I1575
sVpitch
p973
I1971
sVmarshmallows
p974
I1212
sVcold
p975
I1025
sVstill
p976
I257
sVbirds
p977
I1026
sVpolice
p978
I457
sVmonitor
p979
I458
sVcurly
p980
I2606
sVsmoothie
p981
I1213
sVbagels
p982
I829
sVpolka dot
p983
I830
sVplatform
p984
I633
sVwindow
p985
I1027
sV2 men
p986
I831
sVgatorade
p987
I832
sVfarmer
p988
I634
sVmain
p989
I2809
sVtiara
p990
I258
sVtexas
p991
I1214
sVcsx
p992
I2855
sVapron
p993
I54
sVtropicana
p994
I1215
sV3
I2621
sVtop left
p995
I259
sVlunch
p996
I459
sVslacks
p997
I260
sVsafari
p998
I1973
sVhalf
p999
I1028
sVnot
p1000
I261
sVgreen and brown
p1001
I1216
sVnow
p1002
I262
sVketchup
p1003
I2407
sVwagon
p1004
I2198
sVname
p1005
I749
sVarrows
p1006
I1974
sVbowling
p1007
I834
sVteddy bears
p1008
I606
sVman made
p1009
I460
sVnot there
p1010
I835
sVparmesan cheese
p1011
I1782
sVsquare
p1012
I1577
sV5 star
p1013
I263
sVelephants
p1014
I461
sVgoose
p1015
I1030
sVfires
p1016
I1031
sVcatching
p1017
I636
sVzebra
p1018
I1418
sVentering
p1019
I55
sVgirl
p1020
I2810
sVice cream
p1021
I2200
sVmicrowave
p1022
I2593
sVcanada
p1023
I1976
sVliving
p1024
I2811
sVcontainer
p1025
I836
sVboogie board
p1026
I2201
sV3rd
p1027
I1977
sVspace
p1028
I1032
sVtulips
p1029
I2202
sVdo not enter
p1030
I264
sVto catch ball
p1031
I2319
sVair force
p1032
I1578
sVfactory
p1033
I3000
sVlooking
p1034
I1783
sV100 year party ct
p1035
I637
sVsquares
p1036
I1579
sVcarrot cake
p1037
I1580
sVeagle
p1038
I763
sVdodgers
p1039
I837
sVmonster
p1040
I1217
sVcars
p1041
I1784
sVcart
p1042
I1785
sVstanding still
p1043
I1594
sV11:55
p1044
I1979
sVcalifornia
p1045
I2813
sV11:50
p1046
I1980
sVmarina
p1047
I2609
sV6:20
p1048
I56
sV12:10
p1049
I838
sVfishing boat
p1050
I3001
sV12:15
p1051
I839
sV6:25
p1052
I57
sVpaper towels
p1053
I2814
sVstir fry
p1054
I265
sVheadphones
p1055
I1982
sVbritish
p1056
I1786
sVostrich
p1057
I840
sVchevy
p1058
I2411
sVturn
p1059
I638
sVpepperoni
p1060
I2815
sVswing
p1061
I2204
sVfirst
p1062
I462
sVcheese
p1063
I1983
sVflying
p1064
I2610
sV4 ft
p1065
I463
sVbudweiser
p1066
I1420
sVwaves
p1067
I1626
sVcrib
p1068
I1984
sVfast
p1069
I1468
sVspanish
p1070
I2412
sVring
p1071
I266
sVopen
p1072
I1581
sVsize
p1073
I1033
sVsheep
p1074
I1034
sVcity
p1075
I1582
sVlittle
p1076
I1985
sVsheet
p1077
I1035
sV3:55
p1078
I2206
sVlap
p1079
I2549
sVt
I1798
sVpirates
p1080
I3047
sVall of them
p1081
I3005
sVbutton up
p1082
I267
sV2
I841
sVstuffed
p1083
I1583
sVtyping
p1084
I842
sVwhite
p1085
I3006
sVno clock
p1086
I2816
sVfriend
p1087
I1036
sVeyes
p1088
I1986
sVmen's
p1089
I639
sVbutt
p1090
I1987
sVthai
p1091
I2612
sVflowers
p1092
I2613
sVphotograph
p1093
I1131
sV11
p1094
I1988
sV10
p1095
I1989
sVtelevision
p1096
I1787
sV12
p1097
I2769
sVin her hand
p1098
I58
sV14
p1099
I1992
sV10:08
p1100
I1037
sVcoffee pot
p1101
I268
sV19
p1102
I1995
sV18
p1103
I1996
sVnight time
p1104
I59
sVhsbc
p1105
I269
sVcoats
p1106
I1584
sVvictorian
p1107
I1219
sVr
I1422
sVknives
p1108
I1220
sVapples
p1109
I270
sVfruits
p1110
I22
sVdrywall
p1111
I1585
sVrussia
p1112
I1586
sVtractor
p1113
I1221
sVbaseball game
p1114
I1423
sVcoconut
p1115
I1222
sVana
p1116
I41
sVangel
p1117
I1041
sVkenmore
p1118
I1588
sVgreyhound
p1119
I1589
sVsad
p1120
I2414
sVabove door
p1121
I2685
sVpastry
p1122
I464
sVsas
p1123
I2415
sVbreakfast
p1124
I1042
sVwindsor
p1125
I271
sVbatting
p1126
I640
sVspeakers
p1127
I1997
sVshirt and tie
p1128
I1224
sVcigarettes
p1129
I1533
sVswim trunks
p1130
I1449
sVzoo
p1131
I60
sVdining
p1132
I1424
sVfreezer
p1133
I1774
sVsilver and black
p1134
I1788
sVsurf
p1135
I641
sV200
p1136
I466
sVprinter
p1137
I61
sVmultiple
p1138
I3008
sVequestrian
p1139
I642
sVnormal
p1140
I2817
sVtrack
p1141
I2818
sVcheesecake
p1142
I1998
sVwire
p1143
I2525
sVsheets
p1144
I467
sV12 feet
p1145
I1502
sVamerica
p1146
I272
sVhello kitty
p1147
I1822
sVcloset
p1148
I3104
sVcloth
p1149
I2296
sVseafood
p1150
I3009
sVnapkin
p1151
I1225
sVdrive
p1152
I1591
sVsunset
p1153
I1043
sVprofessional
p1154
I2615
sV7:35
p1155
I273
sVsalt
p1156
I2417
sVshop
p1157
I1999
sVwalking
p1158
I1954
sVphotoshop
p1159
I1789
sVgerman
p1160
I1562
sVpeaches
p1161
I1592
sVupright
p1162
I3076
sVbright
p1163
I1593
sVdandelions
p1164
I2397
sVshoe
p1165
I2001
sVcorner
p1166
I2002
sVpacific
p1167
I1437
sVground
p1168
I1045
sVspoons
p1169
I3015
sVslow
p1170
I2419
sVabove sink
p1171
I2759
sVon rack
p1172
I1425
sVtennis player
p1173
I1226
sVon tracks
p1174
I2402
sVonly
p1175
I1790
sVgoing
p1176
I2420
sVblack
p1177
I1227
sVhockey
p1178
I844
sVmuffin
p1179
I2552
sVtennis racquet
p1180
I2616
sVrobe
p1181
I845
sVwool
p1182
I3011
sVpink and black
p1183
I2003
sVpumpkin
p1184
I1572
sVunsure
p1185
I3059
sVsuitcases
p1186
I62
sVbarbed wire
p1187
I847
sVdiamonds
p1188
I2007
sVlilies
p1189
I2617
sVwheelie
p1190
I2422
sVremotes
p1191
I1046
sVlighter
p1192
I3012
sVfar right
p1193
I1426
sValuminum
p1194
I2408
sVleather
p1195
I2618
sVon suitcase
p1196
I2619
sVbraves
p1197
I2585
sVnot high
p1198
I468
sVyield
p1199
I2821
sVmorning
p1200
I469
sVdog bed
p1201
I2822
sVsnowsuit
p1202
I2423
sVred and yellow
p1203
I1047
sVdough
p1204
I1272
sVorioles
p1205
I3067
sVyellow and black
p1206
I2208
sV5 years
p1207
I2004
sVpicnic
p1208
I2413
sVconcert
p1209
I1048
sVblue and red
p1210
I2620
sVseat
p1211
I470
sVcheckered
p1212
I1595
sVasleep
p1213
I1791
sVmagazines
p1214
I1556
sVparking
p1215
I3013
sVcalendar
p1216
I1228
sVcolgate
p1217
I1792
sVpuma
p1218
I1229
sVvertical
p1219
I1596
sVcamping
p1220
I2006
sVfarmers
p1221
I2209
sVjumped
p1222
I2424
sVglaze
p1223
I2010
sVstop light
p1224
I3014
sVboundaries
p1225
I471
sVspinach
p1226
I2763
sVbehind
p1227
I1230
sVskyscraper
p1228
I2622
sV1 hour
p1229
I644
sVreading
p1230
I1231
sVsurfboards
p1231
I2425
sV5:30
p1232
I2856
sVcantaloupe
p1233
I848
sVliving room
p1234
I275
sVlong sleeve
p1235
I2426
sVblue and yellow
p1236
I1427
sV25
p1237
I2039
sVscreen
p1238
I1597
sVdairy queen
p1239
I2623
sVstyle
p1240
I2257
sVdome
p1241
I2427
sVguitar
p1242
I645
sVjets
p1243
I849
sV20
p1244
I1015
sVtub
p1245
I1232
sVno plate
p1246
I1233
sVrugby
p1247
I1234
sVorange juice
p1248
I856
sV1:35
p1249
I850
sV1:30
p1250
I851
sVs
I63
sV4:20
p1251
I64
sVmane
p1252
I1599
sVharbor
p1253
I894
sVwheels
p1254
I2624
sVranch
p1255
I2226
sV6:35
p1256
I2008
sVacross street
p1257
I1049
sV12:00
p1258
I2824
sV6:30
p1259
I2009
sV150
p1260
I1558
sVcolor
p1261
I1428
sVpot
p1262
I2212
sVjeans
p1263
I276
sV60
p1264
I2269
sV61
p1265
I2270
sVtwin
p1266
I852
sVwine tasting
p1267
I65
sV64
p1268
I2213
sV65
p1269
I2214
sV66
p1270
I2215
sVpacifier
p1271
I474
sVpolo
p1272
I1430
sVforehand
p1273
I1050
sVpigtails
p1274
I1052
sVboat
p1275
I2428
sVlabrador
p1276
I2496
sVturkey
p1277
I646
sVolives
p1278
I2626
sVgolden gate
p1279
I2429
sVcycling
p1280
I2627
sVteddy
p1281
I853
sVwest
p1282
I66
sVvacation
p1283
I855
sVtropical
p1284
I277
sVspices
p1285
I3082
sVhelicopter
p1286
I2217
sVto right
p1287
I1600
sV500
p1288
I2218
sVengine
p1289
I2219
sVdirection
p1290
I647
sVholding baby
p1291
I1793
sVlanes
p1292
I2430
sVbrush
p1293
I3121
sVsquash
p1294
I475
sVwhite and orange
p1295
I1053
sVlaptops
p1296
I476
sVbmw
p1297
I1235
sVfoggy
p1298
I2628
sVskiers
p1299
I278
sVcutting cake
p1300
I2826
sVcaptivity
p1301
I1236
sVpilot
p1302
I648
sVcase
p1303
I649
sV3:45
p1304
I1054
sVspiderman
p1305
I1432
sVtrick
p1306
I1795
sVmany
p1307
I1598
sVnewspaper
p1308
I67
sVmound
p1309
I2221
sVwax paper
p1310
I2222
sVno dog
p1311
I857
sVslippers
p1312
I2223
sVvest
p1313
I2224
sVcanoe
p1314
I2431
sVpurse
p1315
I1601
sVtelephone
p1316
I3018
sVsleeping
p1317
I478
sVmiddle
p1318
I1265
sVgood
p1319
I1433
sVwestjet
p1320
I479
sVheels
p1321
I1055
sVstickers
p1322
I2629
sVivy
p1323
I1603
sVtourist
p1324
I2144
sVhelmet
p1325
I1434
sVpaw
p1326
I1270
sV10:30
p1327
I3019
sVcoke
p1328
I566
sVtour
p1329
I473
sV10:35
p1330
I356
sVmacaroni
p1331
I3021
sVmoss
p1332
I2060
sV5:50
p1333
I2011
sVplaster
p1334
I1373
sVpan
p1335
I2828
sV5:55
p1336
I2012
sVexhaust
p1337
I2829
sVwires
p1338
I68
sVbillabong
p1339
I2014
sV1950s
p1340
I3068
sVsingapore
p1341
I69
sVnest
p1342
I2225
sVfoam
p1343
I280
sVdriver
p1344
I2464
sVrunning
p1345
I2831
sVfruit
p1346
I1056
sVstatue
p1347
I650
sVclimbing
p1348
I2015
sVcupcake
p1349
I1824
sVcartoon
p1350
I901
sVhummingbird
p1351
I1604
sVfor photo
p1352
I71
sVmohawk
p1353
I1605
sVwestin
p1354
I281
sVdrain
p1355
I1237
sVtheater
p1356
I110
sVmulti colored
p1357
I72
sVshih tzu
p1358
I3022
sVit's raining
p1359
I1796
sVvisilab
p1360
I115
sVbottle
p1361
I2833
sVpitbull
p1362
I1058
sVmodel
p1363
I1436
sVtaxi
p1364
I282
sVsummer
p1365
I2433
sVoutdoor
p1366
I480
sVsteamed
p1367
I73
sV12:05
p1368
I2823
sVin back
p1369
I1059
sVkrispy kreme
p1370
I1238
sVkneeling
p1371
I3024
sVcilantro
p1372
I1606
sVsnowboarder
p1373
I122
sVnot long
p1374
I2227
sVrose
p1375
I2228
sVdesktop
p1376
I1060
sVbeagle
p1377
I2834
sV9:35
p1378
I1061
sVred and silver
p1379
I1062
sV9:30
p1380
I1063
sV4
I1239
sVxbox
p1381
I2581
sV7:25
p1382
I2229
sVskier
p1383
I858
sVreal
p1384
I1064
sVpapers
p1385
I619
sVfridge
p1386
I3025
sVdark
p1387
I1607
sVtraffic
p1388
I74
sVlistening
p1389
I1797
sVwalk
p1390
I2326
sVorange and black
p1391
I859
sVrear
p1392
I1066
sVmeat
p1393
I1915
sVtowel
p1394
I652
sVnissan
p1395
I2231
sVbracelet
p1396
I2232
sVpole
p1397
I1429
sVtoilet brush
p1398
I1241
sVblackberry
p1399
I286
sVclay
p1400
I860
sVtower
p1401
I653
sVfans
p1402
I2067
sVbow tie
p1403
I481
sVon fridge
p1404
I2630
sVlearning
p1405
I2625
sVapple and banana
p1406
I2631
sVdoll
p1407
I1243
sVparis
p1408
I2938
sVcompetition
p1409
I654
sVtying tie
p1410
I861
sV68
p1411
I2216
sVlobster
p1412
I1608
sVpasture
p1413
I2886
sVstagecoach
p1414
I76
sVred white and blue
p1415
I2234
sVgenetics
p1416
I483
sVwristband
p1417
I2434
sVcurious
p1418
I1657
sVtube
p1419
I862
sVmoon
p1420
I655
sVexit
p1421
I2436
sVforks
p1422
I2633
sVlinoleum
p1423
I2019
sVknife
p1424
I484
sVfootball
p1425
I621
sVwheat
p1426
I1799
sVpower
p1427
I2437
sVsurfboard
p1428
I689
sVvolkswagen
p1429
I1800
sVbroken
p1430
I1246
sVdrums
p1431
I1247
sVthailand
p1432
I77
sVkite flying
p1433
I288
sVplastic
p1434
I3004
sVsoccer field
p1435
I1248
sVstone
p1436
I2438
sVlufthansa
p1437
I133
sVjeep
p1438
I2235
sVisland
p1439
I1249
sVmixer
p1440
I2020
sVside
p1441
I1916
sVmap
p1442
I1965
sVstand
p1443
I2237
sVpockets
p1444
I485
sVtoothpaste
p1445
I854
sV8:55
p1446
I3027
sV8:50
p1447
I3028
sVroad
p1448
I2838
sVheater
p1449
I1068
sVunited states
p1450
I2238
sVearring
p1451
I1802
sVharness
p1452
I486
sVpolka dots
p1453
I2239
sVmoped
p1454
I2439
sVburton
p1455
I656
sVlogs
p1456
I1740
sVracquet
p1457
I2440
sVlog
p1458
I1803
sVshells
p1459
I2021
sV1:25
p1460
I2839
sVphiladelphia
p1461
I2441
sV1:20
p1462
I2840
sV4:35
p1463
I2022
sVcats
p1464
I2636
sVlow
p1465
I1804
sVstars
p1466
I289
sV4:30
p1467
I2023
sVpaddle boarding
p1468
I1806
sV6:40
p1469
I863
sVhard
p1470
I2048
sV6:45
p1471
I864
sVtraffic lights
p1472
I487
sVpitcher
p1473
I290
sVtripod
p1474
I2842
sVsmiley face
p1475
I1069
sVbundt
p1476
I866
sVsled
p1477
I209
sVomelet
p1478
I291
sVin sink
p1479
I3016
sVfighter
p1480
I2442
sVbarber shop
p1481
I658
sVeiffel tower
p1482
I1438
sVbaseball cap
p1483
I2443
sVpotato
p1484
I1951
sVbucket
p1485
I1070
sVhotel room
p1486
I414
sVstrawberry
p1487
I1250
sVchristmas tree
p1488
I1807
sVdirty
p1489
I80
sVsuitcase
p1490
I1251
sVflats
p1491
I659
sVgrass
p1492
I660
sVrust
p1493
I81
sVaa
p1494
I867
sVgone
p1495
I868
sV600
p1496
I292
sVcross country
p1497
I1610
sVam
p1498
I869
sVtennis shoes
p1499
I82
sVdeep
p1500
I2026
sVbritain
p1501
I2528
sVacer
p1502
I2240
sVpedestal
p1503
I1611
sVcream
p1504
I83
sVcollie
p1505
I2444
sVcabinets
p1506
I293
sVverizon
p1507
I3030
sVantenna
p1508
I1071
sVred and white
p1509
I2241
sVshower head
p1510
I2418
sVstorage
p1511
I1072
sVrubber
p1512
I2532
sVfield
p1513
I1253
sV5
I3031
sVnot at all
p1514
I294
sVpuppy
p1515
I84
sVpoor
p1516
I295
sVpolar
p1517
I1073
sVpoop
p1518
I296
sVat table
p1519
I1074
sVpillows
p1520
I662
sVstudents
p1521
I1254
sVtime
p1522
I2394
sVpear
p1523
I1808
sVpeas
p1524
I1809
sVwaving
p1525
I86
sV10:25
p1526
I1810
sV10:20
p1527
I1811
sVbrass
p1528
I2243
sV13
p1529
I1990
sVpool
p1530
I297
sVday time
p1531
I2260
sV5:45
p1532
I870
sVnikon
p1533
I1794
sVmiddle 1
p1534
I2987
sV2009
p1535
I2892
sVremote
p1536
I1255
sV5:40
p1537
I871
sVon water
p1538
I488
sVblack and yellow
p1539
I975
sVmask
p1540
I1613
sVvines
p1541
I2639
sVwater bottle
p1542
I3046
sVhusky
p1543
I2027
sVfor sale
p1544
I872
sVdon't know
p1545
I187
sVall
p1546
I980
sVmotocross
p1547
I2445
sVskeleton
p1548
I1812
sVpointing
p1549
I1075
sVceramic
p1550
I87
sVworms
p1551
I2028
sVhe isn't
p1552
I2446
sVcoach
p1553
I2185
sVparmesan
p1554
I1439
sVmessy
p1555
I2640
sVin sky
p1556
I769
sVchildren
p1557
I2844
sVbroccoli and carrots
p1558
I1440
sVcarpet
p1559
I2641
sVapartment
p1560
I664
sVtv
p1561
I1614
sVlaughing
p1562
I2837
sVtail
p1563
I1615
sVon road
p1564
I489
sVsmile
p1565
I2447
sVriding motorcycle
p1566
I477
sVcrest
p1567
I666
sVpicnic table
p1568
I1813
sVwoman
p1569
I1441
sVsitting
p1570
I490
sVvery
p1571
I1076
sVbrewers
p1572
I2050
sVfan
p1573
I3036
sV17
p1574
I2772
sVfall
p1575
I1257
sVsony
p1576
I3037
sVgrilled cheese
p1577
I1258
sVwashing
p1578
I491
sVlaying
p1579
I2448
sVge
p1580
I1118
sVgrandfather
p1581
I1442
sVskate park
p1582
I88
sVdinosaur
p1583
I873
sVsand
p1584
I89
sVbathing suit
p1585
I90
sVwii controller
p1586
I1814
sVplain
p1587
I2920
sVon tower
p1588
I91
sVearbuds
p1589
I2845
sVmother and child
p1590
I1259
sVvanilla
p1591
I3110
sVcookies
p1592
I1815
sVfence
p1593
I2643
sVtea
p1594
I1443
sVreins
p1595
I2246
sV193
p1596
I92
sVburger
p1597
I1378
sVdesign
p1598
I1444
sVfast food
p1599
I93
sVcasual
p1600
I2644
sVribbon
p1601
I2846
sVtoilet
p1602
I2527
sVsub
p1603
I667
sVclock
p1604
I94
sVsun
p1605
I668
sVstool
p1606
I1260
sVanniversary
p1607
I2563
sVsuv
p1608
I669
sVdead end
p1609
I875
sVracing
p1610
I2247
sVpublic
p1611
I2029
sVmovement
p1612
I2847
sVtattoos
p1613
I2848
sVfull
p1614
I95
sVchristian
p1615
I670
sVtags
p1616
I2248
sVbowtie
p1617
I2030
sVdouble decker
p1618
I1407
sVsurfer
p1619
I1261
sVtracks
p1620
I299
sVbottom left
p1621
I876
sVdirections
p1622
I1445
sVbible
p1623
I2031
sVcolored
p1624
I1078
sVahead
p1625
I1079
sVfirst base
p1626
I1262
sVsiamese
p1627
I3042
sVvegetarian
p1628
I1816
sVstretching
p1629
I2849
sVcucumbers
p1630
I3043
sVsoldier
p1631
I1080
sVairport
p1632
I1263
sVright hand
p1633
I2465
sVswinging bat
p1634
I2450
sVgrapes
p1635
I2362
sVadidas
p1636
I96
sVbuses
p1637
I2850
sVafrica
p1638
I492
sVall way
p1639
I300
sVindoors
p1640
I879
sVtoys
p1641
I1819
sVdachshund
p1642
I493
sVdonuts
p1643
I671
sVoak
p1644
I2132
sVtexting
p1645
I2032
sVpoodle
p1646
I2451
sVflood
p1647
I2392
sVpearl
p1648
I1617
sVpitching
p1649
I881
sV6
I1618
sVraft
p1650
I2033
sVtag
p1651
I3088
sVmore
p1652
I97
sVhorses
p1653
I672
sVflat
p1654
I673
sV100 feet
p1655
I98
sVdoor
p1656
I99
sVcanon
p1657
I2432
sVdishwasher
p1658
I313
sVflag
p1659
I674
sVstick
p1660
I2592
sVbroke
p1661
I1081
sVcruise ship
p1662
I1082
sVbehind bus
p1663
I1446
sVtown
p1664
I1264
sVgrill
p1665
I301
sV3 inches
p1666
I1602
sVklm
p1667
I2452
sV1:10
p1668
I1620
sVhit ball
p1669
I2980
sV1:15
p1670
I1621
sV4:00
p1671
I882
sVspace needle
p1672
I1019
sVstriped
p1673
I2915
sVdump truck
p1674
I1447
sVclock tower
p1675
I2455
sV4:05
p1676
I883
sVbrushing her teeth
p1677
I494
sVseagull
p1678
I100
sVon plate
p1679
I2396
sVmarble
p1680
I1266
sVgreen and red
p1681
I250
sVwoman's
p1682
I2466
sVhamburger
p1683
I1413
sVswiss
p1684
I2072
sVbidet
p1685
I1622
sVnumbers
p1686
I495
sVcows
p1687
I1820
sV11:00
p1688
I1623
sVairplane
p1689
I1448
sV11:05
p1690
I1624
sV11:35
p1691
I1317
sVhuge
p1692
I101
sVcourt
p1693
I2253
sVgoal
p1694
I2254
sVcast iron
p1695
I2853
sVcomfort
p1696
I496
sVcity bus
p1697
I102
sVon boat
p1698
I2035
sVnot very
p1699
I885
sVgoat
p1700
I1029
sVus airways
p1701
I302
sVno parking
p1702
I886
sVplant
p1703
I2458
sVsandwich
p1704
I3045
sVred and gray
p1705
I1625
sVcountryside
p1706
I887
sVplane
p1707
I2459
sVlighting
p1708
I675
sVblood
p1709
I1267
sVcoming
p1710
I497
sVbackyard
p1711
I888
sVhorizontal
p1712
I303
sValps
p1713
I1268
sVshort
p1714
I676
sVcoat
p1715
I1269
sVtoiletries
p1716
I498
sVhauling
p1717
I889
sVvolleyball
p1718
I1627
sVdragon
p1719
I499
sVcoal
p1720
I1271
sVshore
p1721
I677
sVchopsticks
p1722
I304
sVshade
p1723
I2256
sVcrafts
p1724
I1821
sVhitting ball
p1725
I1083
sVegg
p1726
I2648
sVplaying
p1727
I2037
sVpatio
p1728
I2460
sVpans
p1729
I890
sVrottweiler
p1730
I891
sVmexican
p1731
I892
sVhandlebars
p1732
I1450
sVbowl
p1733
I3020
sVsoon
p1734
I1823
sV10:50
p1735
I678
sVpaper
p1736
I103
sV10:55
p1737
I679
sVplaying baseball
p1738
I279
sVsigns
p1739
I104
sVbroadway
p1740
I2461
sVsmiling
p1741
I105
sV24
p1742
I2038
sV2 hours
p1743
I874
sV26
p1744
I2040
sV27
p1745
I2041
sVpens
p1746
I1273
sV21
p1747
I2042
sV22
p1748
I2043
sV23
p1749
I2044
sV28
p1750
I2045
sV29
p1751
I2046
sVmattress
p1752
I1051
sVpeanuts
p1753
I2649
sVsoccer
p1754
I680
sVsauce
p1755
I106
sVthoroughbred
p1756
I2258
sVevening
p1757
I306
sVcalm
p1758
I2259
sVfood
p1759
I1084
sVhot dogs
p1760
I3023
sVmales
p1761
I1274
sVtalking on phone
p1762
I307
sVfloating
p1763
I2790
sVright side
p1764
I109
sVpeeing
p1765
I1825
sVstarbucks
p1766
I308
sVweeds
p1767
I107
sVfoot
p1768
I284
sVtoronto
p1769
I2559
sVsanta hat
p1770
I2462
sVriding bike
p1771
I2635
sVeating
p1772
I2681
sVswimsuit
p1773
I893
sVasparagus
p1774
I1120
sVsomeone
p1775
I2857
sVstopped
p1776
I1826
sVathletics
p1777
I1451
sVnotes
p1778
I3078
sVtrailer
p1779
I1085
sVheavy
p1780
I309
sVclams
p1781
I1275
sVengland
p1782
I2463
sVon napkin
p1783
I2047
sVring finger
p1784
I1628
sVollie
p1785
I815
sVfish
p1786
I36
sVwhite and gray
p1787
I1086
sVhawaii
p1788
I2189
sVoil
p1789
I2013
sVscratching
p1790
I1452
sVair canada
p1791
I895
sVbikers
p1792
I2795
sVflower
p1793
I2859
sValcohol
p1794
I682
sVtennis ball
p1795
I2261
sVpower lines
p1796
I2049
sVfireman
p1797
I2729
sVpigeon
p1798
I1276
sVdugout
p1799
I3048
sV9:12
p1800
I1827
sVrace
p1801
I1667
sVsafety
p1802
I310
sVhill
p1803
I683
sV7
I311
sV9:15
p1804
I1828
sVprint
p1805
I2051
sVwhirlpool
p1806
I2997
sVremodeling
p1807
I2262
sVcaucasian
p1808
I1453
sVhighway
p1809
I896
sVsubway
p1810
I816
sVvery tall
p1811
I108
sVforeground
p1812
I3040
sVdrink
p1813
I1706
sVwisconsin
p1814
I1454
sVdirt
p1815
I1087
sVseagulls
p1816
I2830
sVporcelain
p1817
I897
sVpug
p1818
I1088
sVhouses
p1819
I312
sVbase
p1820
I1089
sVcookie
p1821
I2263
sVbushes
p1822
I2264
sVfaucet
p1823
I500
sVenglish
p1824
I3115
sVcomputers
p1825
I305
sVrailroad crossing
p1826
I2832
sVamerican
p1827
I314
sVjelly
p1828
I2967
sVw
I899
sVdaisy
p1829
I2653
sVsnowboarding
p1830
I684
sVcastle
p1831
I1629
sVcopper
p1832
I2052
sVadvertisement
p1833
I70
sVwine glasses
p1834
I2053
sVdoughnuts
p1835
I1829
sVurinal
p1836
I685
sVwelcome
p1837
I1759
sVfeeder
p1838
I1630
sVfeet
p1839
I2265
sVsmaller
p1840
I2302
sVweather vane
p1841
I3049
sVcups
p1842
I2860
sVwhale
p1843
I2332
sVmaple
p1844
I1830
sVmain st
p1845
I2467
sVhorse
p1846
I315
sVbnsf
p1847
I1090
sVjet
p1848
I1631
sVwatch tv
p1849
I2266
sVbroccoli
p1850
I2529
sVstork
p1851
I686
sVpaint
p1852
I1277
sVleash
p1853
I2054
sVstation
p1854
I316
sVstorm
p1855
I687
sVwashington dc
p1856
I2654
sVsyrup
p1857
I3050
sVbanana
p1858
I1831
sVstore
p1859
I688
sVpare
p1860
I2055
sVselling
p1861
I1832
sVon track
p1862
I317
sVhotel
p1863
I2268
sVpark
p1864
I2056
sVsteering wheel
p1865
I1278
sVflip phone
p1866
I2016
sVboredom
p1867
I318
sVburrito
p1868
I1057
sVstairs
p1869
I2468
sVobama
p1870
I902
sVking
p1871
I690
sVfork and spoon
p1872
I502
sVb
I1279
sVstar alliance
p1873
I3114
sV1 on right
p1874
I691
sVdouble
p1875
I3051
sVtop right
p1876
I2656
sVbride
p1877
I2657
sVemirates
p1878
I111
sVtennis rackets
p1879
I2267
sVcatch ball
p1880
I1280
sVoutdoors
p1881
I2271
sVsweet potato
p1882
I2861
sVtoward
p1883
I319
sV8:35
p1884
I692
sVcleaner
p1885
I3052
sVuniforms
p1886
I1720
sVskyscrapers
p1887
I693
sVcoleslaw
p1888
I1091
sVcurtains
p1889
I2151
sVrefrigerators
p1890
I903
sV10 feet
p1891
I2469
sV1:05
p1892
I504
sVjuice
p1893
I329
sVgraffiti
p1894
I112
sV1:00
p1895
I505
sVyellow and red
p1896
I113
sVconcentration
p1897
I2658
sVabove stove
p1898
I2659
sVlid
p1899
I2660
sVmountain
p1900
I2862
sVwilson
p1901
I694
sVdancing
p1902
I1463
sVpajamas
p1903
I2470
sVback left
p1904
I114
sVcamouflage
p1905
I1833
sVcouch
p1906
I506
sVsandwiches
p1907
I3053
sVsilver and red
p1908
I320
sV4:15
p1909
I2863
sVbrace
p1910
I2471
sVin grass
p1911
I321
sVplay
p1912
I904
sVtowards
p1913
I336
sVelectric
p1914
I695
sVsingles
p1915
I116
sVeggs
p1916
I507
sVtrains
p1917
I2058
sVsalmon
p1918
I2059
sV12:50
p1919
I2473
sVcoca cola
p1920
I2474
sVcigarette
p1921
I1109
sVyellow and orange
p1922
I1456
sVbridle
p1923
I1834
sV72
p1924
I1110
sVeaten
p1925
I1093
sV70
p1926
I2273
sVnothing
p1927
I2274
sVgray and black
p1928
I322
sV11:10
p1929
I508
sVin cup
p1930
I2294
sVmack
p1931
I1835
sVrefrigerator
p1932
I2864
sV11:15
p1933
I509
sVpatterned
p1934
I696
sVwindows
p1935
I3054
sVnational express
p1936
I697
sVchicago
p1937
I2893
sVcover
p1938
I905
sVtongs
p1939
I323
sVred and black
p1940
I2061
sVtrain station
p1941
I1474
sVclean
p1942
I2662
sVbarrel
p1943
I117
sV2.00
p1944
I1836
sVmicrosoft
p1945
I1634
sVstones
p1946
I1457
sVthomas
p1947
I1282
sVgolf
p1948
I1635
sVasphalt
p1949
I1458
sVsparrow
p1950
I588
sVdirt bike
p1951
I2062
sVhugging
p1952
I2865
sVfreight
p1953
I1637
sVcds
p1954
I2276
sVman's
p1955
I2303
sVblender
p1956
I118
sVright 1
p1957
I1122
sVtarmac
p1958
I2277
sVcopyright
p1959
I1094
sVscooter
p1960
I1837
sVchiquita
p1961
I1838
sVvery deep
p1962
I2664
sVmoney
p1963
I2017
sV8
I2063
sVcircle
p1964
I2665
sVgrocery store
p1965
I1638
sVgiants
p1966
I2475
sVboarding
p1967
I1923
sVtriangle
p1968
I699
sVnot here
p1969
I2666
sVneon
p1970
I283
sVwhite and pink
p1971
I2064
sVsunny
p1972
I119
sVgrocery
p1973
I2655
sVtrees
p1974
I1095
sVplay tennis
p1975
I1283
sV10:40
p1976
I2667
sVbatter
p1977
I1284
sV15 feet
p1978
I2124
sV10:45
p1979
I357
sVsilk
p1980
I2065
sVchimney
p1981
I1839
sVthrow frisbee
p1982
I1285
sVcatcher
p1983
I1840
sVon horse
p1984
I1096
sVmotorcycles
p1985
I511
sVsleeve
p1986
I906
sVaround neck
p1987
I1286
sVon stove
p1988
I2476
sVpaddling
p1989
I2477
sVtabby
p1990
I2478
sVgloves
p1991
I1097
sVswitzerland
p1992
I1098
sVcorgi
p1993
I1099
sVriver
p1994
I2479
sVmouthwash
p1995
I513
sVon ground
p1996
I2922
sVbars
p1997
I3056
sVart
p1998
I3057
sV1 on left
p1999
I1287
sVthrowing
p2000
I2669
sVrolex
p2001
I2152
sVlion
p2002
I2066
sVdefense
p2003
I1133
sVclose
p2004
I324
sVus air force
p2005
I2242
sVarm
p2006
I3061
sVanalog
p2007
I121
sVbarn
p2008
I3062
sVpractice
p2009
I3094
sVpictures
p2010
I325
sVunion station
p2011
I2670
sVon rock
p2012
I1288
sVpickup
p2013
I1641
sVcrosswalk
p2014
I907
sVchampagne
p2015
I2068
sV1 year
p2016
I908
sVeurope
p2017
I2481
sVpaisley
p2018
I3063
sVrecently
p2019
I1459
sVbuoys
p2020
I2482
sVmailbox
p2021
I514
sVfire extinguisher
p2022
I3064
sVdrinking water
p2023
I2483
sVpepsi
p2024
I2069
sVbaby's breath
p2025
I2866
sVzipper
p2026
I326
sVbronze
p2027
I1460
sVon shore
p2028
I1642
sVboth
p2029
I2671
sVc
I3065
sVrestaurant
p2030
I515
sVbaseball bat
p2031
I516
sVroman
p2032
I2282
sV9:05
p2033
I700
sVbaseball
p2034
I2985
sVwhole
p2035
I909
sVlanyard
p2036
I910
sVsink
p2037
I2894
sVcakes
p2038
I3116
sVbell
p2039
I123
sVsweet
p2040
I701
sVvent
p2041
I2918
sVlake
p2042
I2923
sV1 world
p2043
I2283
sVbadminton
p2044
I1100
sVchurch
p2045
I1643
sVgoats
p2046
I2284
sVbelt
p2047
I124
sVsuspenders
p2048
I3066
sVshingles
p2049
I2018
sVtop hat
p2050
I1644
sVladybug
p2051
I2587
sVhitting
p2052
I911
sVpc
p2053
I2197
sVupside down
p2054
I1336
sVireland
p2055
I1289
sVpeppers
p2056
I518
sVbrick
p2057
I2739
sVmeeting
p2058
I2867
sVempty
p2059
I328
sVpm
p2060
I1461
sVblankets
p2061
I1240
sVbox
p2062
I447
sVkorean air
p2063
I1462
sVreferee
p2064
I2285
sVsquirrel
p2065
I338
sVpassengers
p2066
I1567
sVfire
p2067
I912
sVwet
p2068
I177
sVgas
p2069
I2071
sV39
p2070
I2088
sVawake
p2071
I125
sVfarmers market
p2072
I913
sVplants
p2073
I2286
sVvery old
p2074
I1291
sVfur
p2075
I1292
sVpedestrian
p2076
I1633
sVsolid
p2077
I2868
sVski
p2078
I3119
sVstraight
p2079
I1646
sVwhite and brown
p2080
I914
sVkodak
p2081
I519
sVsesame
p2082
I915
sVbikini
p2083
I1843
sVleaning
p2084
I1647
sVfun
p2085
I1293
sVkissing
p2086
I2484
sVbiking
p2087
I1844
sVrobin
p2088
I2485
sVknee pads
p2089
I916
sVswim
p2090
I285
sVholding phone
p2091
I1321
sVducks
p2092
I2486
sVdecoration
p2093
I1527
sVair conditioner
p2094
I2280
sVnightstand
p2095
I2287
sVleaving
p2096
I720
sVaudi
p2097
I917
sV8:05
p2098
I2672
sVitaly
p2099
I1532
sVshirt
p2100
I702
sV8:00
p2101
I2673
sV870
p2102
I1648
sVshorter
p2103
I2488
sVcumulus
p2104
I3069
sV9
I703
sVday
p2105
I2904
sVwindmill
p2106
I520
sVhallway
p2107
I2674
sVused
p2108
I1102
sVkeys
p2109
I2869
sVleopard
p2110
I2870
sVcement
p2111
I704
sVwhite and red
p2112
I2489
sV000
p2113
I330
sVcucumber
p2114
I918
sVstripe
p2115
I521
sVsandals
p2116
I1294
sVon pizza
p2117
I2676
sVbrushing hair
p2118
I1295
sVbeanie
p2119
I2871
sVvideo game
p2120
I2097
sVolder
p2121
I1846
sVhorse racing
p2122
I2765
sVgrind
p2123
I1103
sVperson
p2124
I781
sVflags
p2125
I2872
sVy
I1542
sVyankees
p2126
I2677
sV11:25
p2127
I2490
sVmom
p2128
I2836
sV11:20
p2129
I2491
sV12:40
p2130
I1296
sVpigeons
p2131
I1464
sVcheddar
p2132
I127
sV12:45
p2133
I1297
sVbirthday
p2134
I2314
sVin field
p2135
I2766
sVdb
p2136
I2898
sVshape
p2137
I522
sVlexus
p2138
I2288
sVprince
p2139
I705
sVping pong
p2140
I706
sVtables
p2141
I2289
sVporch
p2142
I3085
sVcut
p2143
I523
sVtablet
p2144
I1180
sVcup
p2145
I524
sVlady
p2146
I1065
sVstainless steel
p2147
I919
sVholding it
p2148
I2290
sVcherries
p2149
I331
sVkites
p2150
I2873
sVsydney
p2151
I1650
sVradish
p2152
I2401
sVfurniture
p2153
I2230
sVeaster
p2154
I525
sVsurprised
p2155
I2493
sVbin
p2156
I2874
sVin motion
p2157
I1873
sVaustralia
p2158
I1651
sVradiator
p2159
I424
sVlife vest
p2160
I2291
sVcouple
p2161
I129
sVjp morgan
p2162
I1847
sVbib
p2163
I2876
sVgame
p2164
I1848
sVflamingo
p2165
I2118
sVwii
p2166
I1863
sVbank of america
p2167
I2942
sVbrown and black
p2168
I1849
sVformal
p2169
I1653
sVkayak
p2170
I1962
sVvests
p2171
I333
sVd
I1654
sVsemi
p2172
I2073
sVtoyota
p2173
I2678
sVglove
p2174
I1298
sVfly kite
p2175
I1104
sVbaseball glove
p2176
I920
sVbamboo
p2177
I2074
sVzucchini
p2178
I2057
sV20 feet
p2179
I2679
sVgoogle
p2180
I2877
sVcones
p2181
I334
sVred white blue
p2182
I2075
sVspring
p2183
I1655
sVno man
p2184
I335
sVback
p2185
I1299
sVmarker
p2186
I3072
sVpalm
p2187
I1656
sVblue and white
p2188
I337
sVmirror
p2189
I2076
sVcandle
p2190
I526
sVsprint
p2191
I1658
sVscarf
p2192
I2519
sVqatar
p2193
I1105
sVscale
p2194
I2878
sV5:18
p2195
I527
sVwater skis
p2196
I1300
sVsinging
p2197
I2696
sVbus stop
p2198
I2157
sV5:15
p2199
I528
sV5:10
p2200
I529
sVpen
p2201
I1301
sVsneakers
p2202
I1302
sVgolden retriever
p2203
I1106
sVpee
p2204
I1303
sVlime
p2205
I2896
sV12:55
p2206
I2472
sVnose
p2207
I1242
sVin basket
p2208
I1304
sVstanding
p2209
I931
sVcameraman
p2210
I2078
sVrun
p2211
I1107
sV2:45
p2212
I2098
sV300
p2213
I2079
sVin background
p2214
I2880
sVrug
p2215
I1108
sVstew
p2216
I1850
sVsanta
p2217
I921
sVat&t
p2218
I339
sVraspberry
p2219
I2683
sVblack white
p2220
I1851
sVlittle girl
p2221
I785
sVsoft
p2222
I2925
sVfor balance
p2223
I1852
sVmcdonald's
p2224
I2292
sV75
p2225
I2272
sVgraduation
p2226
I2882
sVsurfers
p2227
I2293
sVregular
p2228
I1927
sVbeans
p2229
I1305
sVmouth
p2230
I16
sVred and green
p2231
I2453
sVus open
p2232
I2808
sVcolorado
p2233
I828
sVdog and cat
p2234
I1853
sVwater skiing
p2235
I1576
sVto eat
p2236
I1854
sVrackets
p2237
I1484
sVfrance
p2238
I2798
sVdownhill
p2239
I2884
sVwine bottle
p2240
I1306
sVjockey
p2241
I1307
sVcomputer
p2242
I2723
sVvery long
p2243
I2295
sVapartments
p2244
I287
sVdunkin donuts
p2245
I1467
sVlong
p2246
I1218
sVon car
p2247
I341
sVgiraffe and zebra
p2248
I2684
sVhomemade
p2249
I1308
sVon table
p2250
I1309
sVforward
p2251
I1310
sVbored
p2252
I1311
sVopponent
p2253
I698
sVmountains
p2254
I1469
sVhimself
p2255
I1111
sVhawaiian
p2256
I132
sVposter
p2257
I1660
sVboys
p2258
I2081
sVno sign
p2259
I1112
sVtennis court
p2260
I530
sVdole
p2261
I1244
sVdelta
p2262
I2297
sVrussian
p2263
I1113
sVcrane
p2264
I3077
sVcalico
p2265
I2885
sVpenguin
p2266
I2298
sVlifeguard
p2267
I1312
sVclydesdale
p2268
I1514
sVskull
p2269
I2686
sVfries
p2270
I1470
sVup
p2271
I1661
sVus
p2272
I1662
sVuk
p2273
I1663
sVplanes
p2274
I531
sVwine glass
p2275
I2687
sVfried
p2276
I1471
sVclear
p2277
I2661
sVv
I2250
sVgeese
p2278
I2083
sVadults
p2279
I1114
sVplaying frisbee
p2280
I1124
sVnighttime
p2281
I2768
sVsepia
p2282
I710
sVsingle
p2283
I2084
sVwarning
p2284
I1472
sVcurb
p2285
I532
sVhome
p2286
I380
sVcafe
p2287
I533
sVpickles
p2288
I1609
sVcotton
p2289
I1115
sVrainbow
p2290
I711
sVrainy
p2291
I2299
sVlemon
p2292
I1473
sVpeach
p2293
I712
sVpeace
p2294
I713
sVno flag
p2295
I2275
sVparakeet
p2296
I2497
sVmayonnaise
p2297
I534
sVtarp
p2298
I2498
sV1 way
p2299
I1116
sVbrushing
p2300
I75
sVcan't see it
p2301
I1313
sVspectators
p2302
I1117
sVmustard
p2303
I1245
sVcobblestone
p2304
I922
sVfuton
p2305
I1767
sVdesert
p2306
I2887
sVin car
p2307
I2632
sVpottery
p2308
I1475
sVtake off
p2309
I865
sVland
p2310
I134
sVe
I342
sVherd
p2311
I2350
sVpedestrians
p2312
I1664
sVage
p2313
I2499
sVvehicles
p2314
I2888
sVsesame seeds
p2315
I1665
sVcooked
p2316
I535
sV2000
p2317
I2889
sVnasa
p2318
I1476
sVtaking picture
p2319
I923
sV2007
p2320
I2890
sVparking meter
p2321
I714
sVfresh
p2322
I1666
sV2008
p2323
I2891
sVberries
p2324
I1855
sVbuffalo
p2325
I1256
sVstroller
p2326
I1314
sVdesserts
p2327
I1856
sVwindy
p2328
I715
sVfood truck
p2329
I2300
sVgo
p2330
I1119
sVvery high
p2331
I716
sV5:00
p2332
I2503
sVski boots
p2333
I2082
sVpizza hut
p2334
I343
sVgold
p2335
I1636
sVwindowsill
p2336
I135
sV5 feet
p2337
I2080
sVyoung
p2338
I878
sVsuits
p2339
I1857
sVgreen and blue
p2340
I2085
sVwhite and black
p2341
I2697
sVfrisbees
p2342
I1619
sVcluttered
p2343
I1858
sVgravel
p2344
I1315
sVjet ski
p2345
I1859
sV11:30
p2346
I1316
sVfamily
p2347
I1817
sVpink and blue
p2348
I536
sVgarden
p2349
I924
sVoutside
p2350
I2210
sVdessert
p2351
I537
sVwave
p2352
I344
sVspoon
p2353
I2301
sVwavy
p2354
I2036
sVfacebook
p2355
I2688
sVtoasted
p2356
I2379
sVdrinking
p2357
I1477
sVon building
p2358
I2689
sVlegos
p2359
I538
sVsnowboards
p2360
I345
sVbutton
p2361
I2690
sVgray and white
p2362
I717
sV5:05
p2363
I2504
sVcar
p2364
I1768
sVchoppy
p2365
I1318
sVrack
p2366
I1668
sV2 people
p2367
I900
sVcrow
p2368
I1319
sVham
p2369
I26
sVmural
p2370
I1632
sVair france
p2371
I1479
sVjump
p2372
I346
sVvideo
p2373
I136
sVtraveling
p2374
I1281
sVspaghetti
p2375
I1669
sVwings
p2376
I1947
sVindex
p2377
I925
sVsausage
p2378
I1861
sVcupcakes
p2379
I1121
sVcheckers
p2380
I1480
sVcompaq
p2381
I718
sVopaque
p2382
I510
sVpipes
p2383
I2086
sVpaddle
p2384
I2087
sVwindow sill
p2385
I1671
sVcell
p2386
I2691
sVbelow
p2387
I2342
sVwaiting
p2388
I3079
sVindian
p2389
I2501
sVtwins
p2390
I926
sVfisheye
p2391
I1320
sVgoatee
p2392
I1889
sVchain link
p2393
I2663
sVbird
p2394
I927
sVscenery
p2395
I2502
sVleg
p2396
I928
sVblack and pink
p2397
I1672
sVkangaroo
p2398
I719
sVcommercial
p2399
I1862
sVraspberries
p2400
I2693
sVpacking
p2401
I539
sVoars
p2402
I1481
sVpancake
p2403
I347
sVorange and yellow
p2404
I540
sV38
p2405
I2089
sVmetro
p2406
I3081
sV33
p2407
I2090
sV32
p2408
I2091
sV31
p2409
I2092
sV30
p2410
I2093
sV37
p2411
I126
sV36
p2412
I2094
sV35
p2413
I2095
sVbanana split
p2414
I929
sVmouse pad
p2415
I1322
sVreds
p2416
I1482
sVapple
p2417
I3083
sVscania
p2418
I137
sVcell phones
p2419
I721
sVpalm trees
p2420
I2812
sVbaskets
p2421
I1323
sVmariners
p2422
I930
sVriding horse
p2423
I1324
sVmotor
p2424
I3084
sVduck
p2425
I722
sVoval
p2426
I1325
sVsan francisco
p2427
I2695
sVtools
p2428
I2506
sVcloud
p2429
I1123
sVgrassy
p2430
I2603
sVon sidewalk
p2431
I348
sVunder tree
p2432
I1931
sVchina airlines
p2433
I131
sV1 inch
p2434
I2881
sVusa
p2435
I1483
sVbehind bench
p2436
I3075
sVlistening to music
p2437
I138
sVfrog
p2438
I723
sVthrow
p2439
I1801
sVfew
p2440
I1485
sVcamera
p2441
I349
sVtoy
p2442
I2149
sVcosmo
p2443
I1864
sVpencil
p2444
I139
sVtell time
p2445
I1891
sVhalf full
p2446
I1673
sVharley davidson
p2447
I2508
sVvisibility
p2448
I350
sVsunrise
p2449
I2999
sVtrain
p2450
I2100
sVparrots
p2451
I724
sVrabbit
p2452
I3086
sVbaby
p2453
I140
sVmitsubishi
p2454
I1125
sVcasserole
p2455
I932
sVwomen
p2456
I3087
sVballs
p2457
I2500
sVanimals
p2458
I2509
sVsalad
p2459
I2698
sVf
I2101
sVtunnel
p2460
I2897
sVon tree
p2461
I2510
sVst patrick's day
p2462
I1486
sVred light
p2463
I1674
sVdonut
p2464
I1126
sVnapkins
p2465
I2304
sVsnowing
p2466
I2344
sVthin
p2467
I2511
sVpelicans
p2468
I78
sVshoulder
p2469
I1948
sVpelican
p2470
I3003
sVshower curtain
p2471
I2700
sVcontrol
p2472
I2701
sVbeijing
p2473
I1865
sVi don't know
p2474
I351
sVshepherd
p2475
I2278
sVketchup and mustard
p2476
I541
sVon woman
p2477
I352
sVwiimote
p2478
I2990
sVhalloween
p2479
I1127
sVhigh
p2480
I933
sVhammer time
p2481
I725
sVcarrot
p2482
I1487
sVtam
p2483
I3089
sVhit
p2484
I3055
sVtan
p2485
I3090
sVshrimp
p2486
I2236
sVskirt
p2487
I1866
sVlamb
p2488
I2102
sVunited
p2489
I1488
sVchevrolet
p2490
I1867
sVtoaster oven
p2491
I353
sVboxing
p2492
I2103
sVlamp
p2493
I2104
sVforest
p2494
I2105
sVanimal
p2495
I934
sV1 in front
p2496
I2279
sVbandana
p2497
I354
sVsweat
p2498
I2339
sVbuildings
p2499
I1326
sVleft 1
p2500
I2512
sVfarm
p2501
I355
sVwatch
p2502
I2159
sVwallpaper
p2503
I936
sVnotebook
p2504
I937
sVwrist
p2505
I726
sVties
p2506
I2513
sVcabbage
p2507
I1675
sVhawk
p2508
I1676
sVterrier
p2509
I2106
sVtomato
p2510
I1677
sVin his hand
p2511
I2702
sVlight
p2512
I2305
sVcounter
p2513
I1678
sVlines
p2514
I2899
sVrobot
p2515
I142
sVbakery
p2516
I1868
sVnecklace
p2517
I2306
sVpastries
p2518
I1894
sVstuffed animal
p2519
I727
sVmustache
p2520
I542
sVtiled
p2521
I1933
sVbathing
p2522
I1128
sVdown street
p2523
I2555
sVmeter
p2524
I1328
sVlicense plate
p2525
I1329
sVspatula
p2526
I143
sVtaking pictures
p2527
I358
sVcostume
p2528
I359
sVmutt
p2529
I144
sVhorns
p2530
I543
sVshopping cart
p2531
I3092
sVraw
p2532
I2959
sVlg
p2533
I1702
sVla
p2534
I1330
sVbroom
p2535
I2703
sVon desk
p2536
I2567
sVsquatting
p2537
I2900
sVorange
p2538
I1491
sV2016
p2539
I1681
sV2011
p2540
I1682
sV2010
p2541
I1683
sV2013
p2542
I1684
sV2012
p2543
I1685
sVon runway
p2544
I1492
sVfeta
p2545
I1686
sVfood processor
p2546
I1493
sVtaking off
p2547
I1639
sVwashington
p2548
I1895
sVnokia
p2549
I1870
sVbat
p2550
I2770
sVoranges
p2551
I2308
sVtoshiba
p2552
I2902
sVdock
p2553
I1687
sVcutting
p2554
I2903
sVpowdered sugar
p2555
I1688
sVsnake
p2556
I145
sValaska
p2557
I2895
sVhands
p2558
I1871
sVfront
p2559
I2705
sV1:55
p2560
I146
sVcage
p2561
I2515
sVvalentine's day
p2562
I147
sV1:50
p2563
I148
sV4:45
p2564
I2516
sVto see
p2565
I965
sV5:25
p2566
I1640
sV4:40
p2567
I2517
sVnext to toilet
p2568
I939
sVboots
p2569
I1860
sVsniffing
p2570
I1689
sVslide
p2571
I360
sVcrossing
p2572
I2121
sVon plane
p2573
I1872
sVcatch frisbee
p2574
I940
sVglasses
p2575
I149
sVmets
p2576
I1690
sV2:10
p2577
I2568
sVlilac
p2578
I2310
sVon motorcycle
p2579
I1494
sVon bed
p2580
I728
sVglobe
p2581
I2706
sV700
p2582
I586
sVpotato salad
p2583
I544
sVmulticolored
p2584
I2123
sV88
p2585
I2311
sVbooks
p2586
I150
sVlicking
p2587
I2965
sV80
p2588
I2312
sVdr pepper
p2589
I1331
sVshearing
p2590
I1356
sVout
p2591
I729
sVhouse
p2592
I2858
sVin cabbage town
p2593
I151
sVoriental
p2594
I1717
sVbrown and white
p2595
I730
sVcaramel
p2596
I120
sVelectronics
p2597
I1332
sVmt airy
p2598
I2708
sVwindsurfing
p2599
I2906
sVred
p2600
I1333
sVshut
p2601
I2518
sVwater ski
p2602
I189
sVumbrella
p2603
I573
sVwatermark
p2604
I1875
sVipod
p2605
I2313
sVholding umbrella
p2606
I191
sVtiger
p2607
I2220
sVdoubles
p2608
I512
sVvan
p2609
I2341
sVbusiness
p2610
I2634
sVno number
p2611
I1334
sVbackwards
p2612
I545
sVyard
p2613
I546
sVg
I732
sVusing computer
p2614
I1335
sVskateboard
p2615
I547
sVmac
p2616
I1967
sVyarn
p2617
I548
sVstate farm
p2618
I1777
sV3:00
p2619
I2572
sVmuseum
p2620
I2738
sVsouth
p2621
I1729
sVknife and fork
p2622
I2520
sVin corner
p2623
I1744
sVtennis racket
p2624
I733
sVjesus
p2625
I941
sVowner
p2626
I942
sVumbrellas
p2627
I734
sVtater tots
p2628
I2521
sVmonkey
p2629
I601
sVprivacy
p2630
I2710
sVfestival
p2631
I152
sVunknown
p2632
I735
sVpots
p2633
I1337
sVbig ben
p2634
I153
sVnew york
p2635
I2712
sVhexagon
p2636
I2694
sVankle
p2637
I361
sVsteeple
p2638
I2595
sVblue and black
p2639
I736
sVfluffy
p2640
I1935
sVpaved
p2641
I2153
sVcuddling
p2642
I1692
sVt shirt
p2643
I222
sVstomach
p2644
I154
sVlot
p2645
I1805
sVshorts
p2646
I1693
sVbulldog
p2647
I549
sVhigh chair
p2648
I1129
sVnobody
p2649
I550
sVschool bus
p2650
I155
sVdreadlocks
p2651
I737
sVyellow and blue
p2652
I1498
sVbranches
p2653
I2995
sVherself
p2654
I1130
sVsteel
p2655
I943
sV2:55
p2656
I944
sV2:50
p2657
I945
sV55
p2658
I2170
sVshampoo
p2659
I1338
sVbed
p2660
I1132
sVlooking at camera
p2661
I565
sVred and blue
p2662
I2805
sV7 eleven
p2663
I1694
sVno train
p2664
I2908
sVclip
p2665
I738
sV54
p2666
I2171
sVcarrots
p2667
I1134
sVasics
p2668
I1135
sVrecessed
p2669
I2714
sVclose up
p2670
I2841
sVcurved
p2671
I2909
sVbark
p2672
I3060
sVsidecar
p2673
I2910
sVon floor
p2674
I657
sVcatholic
p2675
I2317
sVmicrophone
p2676
I2715
sVmountainous
p2677
I156
sVsprinkles
p2678
I1136
sV9:50
p2679
I362
sVcranes
p2680
I1876
sVbagel
p2681
I2233
sVski poles
p2682
I2806
sVtruck
p2683
I2405
sVvisor
p2684
I1137
sVsoap
p2685
I946
sVrye
p2686
I2854
sVfeeding giraffe
p2687
I1499
sVtim hortons
p2688
I2107
sVsewing
p2689
I1877
sVcamper
p2690
I1878
sVkickstand
p2691
I2716
sVbiplane
p2692
I1209
sVlogitech
p2693
I938
sVsedan
p2694
I2108
sVcabinet
p2695
I3029
sV51
p2696
I2173
sVbeets
p2697
I551
sVhot dog
p2698
I158
sVthanksgiving
p2699
I159
sVface
p2700
I1696
sVpipe
p2701
I739
sVscrambled
p2702
I2717
sVstrawberries
p2703
I384
sVlos angeles
p2704
I2109
sVmovie
p2705
I2480
sVpainting
p2706
I1697
sVblack and gray
p2707
I1138
sVteddy bear
p2708
I160
sVwatching tv
p2709
I161
sVkite
p2710
I2912
sVstove
p2711
I2318
sVindoor
p2712
I2718
sVantelope
p2713
I1679
sVbiker
p2714
I947
sVbikes
p2715
I948
sVparked
p2716
I1139
sVnot likely
p2717
I2110
sVottoman
p2718
I363
sVrough
p2719
I2523
sVsauerkraut
p2720
I1670
sVbaseball player
p2721
I1698
sVplanter
p2722
I2598
sVtire
p2723
I1879
sVblack and silver
p2724
I2778
sVnot possible
p2725
I949
sVtv stand
p2726
I1546
sVpolice officer
p2727
I163
sVbuttons
p2728
I1699
sVjal
p2729
I164
sVtape
p2730
I165
sVplaying tennis
p2731
I1022
sVpiano
p2732
I2320
sVon sink
p2733
I1339
sVthousands
p2734
I3102
sVdodge
p2735
I2720
sVhandle
p2736
I1700
sVpull
p2737
I79
sVmichigan
p2738
I2721
sVstripes
p2739
I1775
sVwall st
p2740
I2524
sV120
p2741
I1140
sVbaggage claim
p2742
I364
sVcubs
p2743
I740
sVwords
p2744
I3103
sVafrican american
p2745
I2111
sVchips
p2746
I2322
sVstyrofoam
p2747
I167
sVgray
p2748
I1880
sVtrucks
p2749
I365
sVshopping
p2750
I2825
sVh
I2607
sVmarried
p2751
I741
sVminnie mouse
p2752
I1701
sVpirate
p2753
I790
sVmercedes
p2754
I552
sVasian
p2755
I1902
sVmotorcycle
p2756
I2514
sVspotted
p2757
I1881
sVdaffodil
p2758
I3124
sVamerican airlines
p2759
I1869
sVhardwood
p2760
I2722
sVframe
p2761
I168
sVhumans
p2762
I1883
sVroman numerals
p2763
I169
sVdaffodils
p2764
I553
sVdriveway
p2765
I1884
sVskateboarding
p2766
I170
sVracket
p2767
I554
sV1:40
p2768
I2112
sVon bus
p2769
I2724
sV1:45
p2770
I2113
sV8 feet
p2771
I827
sVgreen and white
p2772
I2916
sV4:50
p2773
I1340
sVto dry
p2774
I555
sVbraid
p2775
I1501
sV4:55
p2776
I1341
sVamtrak
p2777
I950
sVposing
p2778
I2604
sVmeatballs
p2779
I1503
sV9:45
p2780
I2333
sVquilt
p2781
I2742
sVvirgin atlantic
p2782
I3105
sVhammock
p2783
I556
sVidentification
p2784
I742
sVclosed
p2785
I3106
sVneither
p2786
I1141
sVflickr
p2787
I1142
sVemail
p2788
I951
sVtent
p2789
I366
sVblack and red
p2790
I952
sVcauliflower
p2791
I274
sVhorizontally
p2792
I2307
sVcutting board
p2793
I2323
sVparking meters
p2794
I1703
sVon his face
p2795
I743
sVkicking
p2796
I367
sVdress
p2797
I2457
sVnot in service
p2798
I2281
sVstucco
p2799
I744
sVblack and white
p2800
I2324
sVstaring
p2801
I171
sVski resort
p2802
I2917
sVtoothbrush
p2803
I2966
sVon beach
p2804
I1885
sVblue and orange
p2805
I1504
sVtires
p2806
I2347
sVramp
p2807
I2526
sVout of focus
p2808
I1505
sVwillow
p2809
I1780
sVdoorway
p2810
I172
sVin snow
p2811
I1342
sVcanopy
p2812
I3108
sVpolar bear
p2813
I1928
sVpeanut butter
p2814
I651
sVwhite house
p2815
I1252
sVunclear
p2816
I745
sVstatues
p2817
I557
sV2:40
p2818
I2099
sVwall
p2819
I2325
sVdenim
p2820
I558
sVcd
p2821
I953
sVtable
p2822
I3026
sVlooking at phone
p2823
I368
sVin water
p2824
I2327
sVtank top
p2825
I1143
sVmotorbike
p2826
I746
sVtraffic light
p2827
I3109
sVegg salad
p2828
I1506
sVhigh heels
p2829
I2725
sVcurtain
p2830
I2114
sVorange and white
p2831
I2637
sVtissues
p2832
I1899
sVcommuter
p2833
I173
sVpainted
p2834
I1507
sVdeer
p2835
I2025
sVairplanes
p2836
I1343
sVpie
p2837
I2932
sV2015
p2838
I1680
sVcontroller
p2839
I369
sVice
p2840
I1395
sVbull
p2841
I2115
sVsmoking
p2842
I370
sVmulti
p2843
I2116
sVplaid
p2844
I2919
sVcutting hair
p2845
I635
sVrunway
p2846
I1704
sVchalk
p2847
I2726
sVwild
p2848
I3111
sVbathtub
p2849
I1077
sVbuilding
p2850
I2638
sVtoothbrushes
p2851
I371
sV10 inches
p2852
I2727
sVdad
p2853
I2901
sVripe
p2854
I954
sVon street
p2855
I3112
sVrooster
p2856
I747
sVgothic
p2857
I2328
sVswinging
p2858
I1887
sVarabic
p2859
I1344
sVstained glass
p2860
I1345
sVtattoo
p2861
I174
sVwinnie pooh
p2862
I1705
sVballoon
p2863
I2728
sVcross
p2864
I1508
sVspeaker
p2865
I372
sVflour
p2866
I3093
sVnathan's
p2867
I1509
sVparty
p2868
I373
sVnorth face
p2869
I955
sVtomatoes
p2870
I2329
sVball
p2871
I956
sVdusk
p2872
I957
sVbald
p2873
I958
sVoctagon
p2874
I3113
sVhair dryer
p2875
I2330
sVstudent
p2876
I2331
sVfancy
p2877
I2650
sVoveralls
p2878
I959
sVcollar
p2879
I1455
sVmosaic
p2880
I2530
sVstreet light
p2881
I2117
sVoff
p2882
I175
sVreflection
p2883
I1144
sVyellow and green
p2884
I1510
sVi
I1145
sVovercast
p2885
I2531
sVgerman shepherd
p2886
I1146
sVfighting
p2887
I1511
sVleft side
p2888
I1177
sV350
p2889
I1707
sVspray paint
p2890
I2704
sVdrawing
p2891
I1708
sV1950
p2892
I1781
sVbending
p2893
I1512
sVon left
p2894
I2730
sVtaller
p2895
I1147
sVcoaster
p2896
I1347
sVbananas
p2897
I960
sVcamel
p2898
I748
sVsavannah
p2899
I2731
sV7:55
p2900
I961
sVmaple leaf
p2901
I3095
sVdomestic
p2902
I2921
sVjar
p2903
I162
sVarriving
p2904
I833
sVclocks
p2905
I176
sVfishing
p2906
I1513
sVfire hydrant
p2907
I962
sVillinois
p2908
I3126
sVconference room
p2909
I963
sVhappiness
p2910
I3117
sVflashlight
p2911
I559
sVtoilets
p2912
I2334
sVroses
p2913
I661
sVgmc
p2914
I327
sVresidential
p2915
I964
sVsky
p2916
I3118
sVpoles
p2917
I2692
sVbench
p2918
I1348
sVdifferent teams
p2919
I2533
sVcitizen
p2920
I1349
sVballoons
p2921
I375
sVriding elephant
p2922
I376
sVsingle engine
p2923
I1101
sVpants
p2924
I3107
sVstreet sign
p2925
I178
sVno water
p2926
I1888
sVdesk
p2927
I2534
sVpropeller
p2928
I377
sVdoughnut
p2929
I2335
sVintersection
p2930
I378
sVpier
p2931
I179
sVmotorola
p2932
I332
sVonion
p2933
I966
sVmiami
p2934
I1466
sVsofa
p2935
I2924
sVcandy
p2936
I1148
sVcontrollers
p2937
I1149
sVgarage
p2938
I2535
sVburgers
p2939
I2381
sVkawasaki
p2940
I2336
sVitalian
p2941
I2119
sVoutfield
p2942
I2843
sVshed
p2943
I2732
sVcarnations
p2944
I560
sVlibrary
p2945
I379
sVhair
p2946
I561
sVcan't tell
p2947
I750
sValmonds
p2948
I2536
sVflying kites
p2949
I180
sVtransport
p2950
I967
sVthrow ball
p2951
I1612
sVleaf
p2952
I3120
sVmonday
p2953
I2733
sVgreen and yellow
p2954
I1515
sVkettle
p2955
I2734
sVgrinding
p2956
I381
sVfedex
p2957
I968
sVshelter
p2958
I1350
sVfountain
p2959
I2652
sVon laptop
p2960
I2537
sVearrings
p2961
I1516
sVchains
p2962
I2927
sVblurry
p2963
I2538
sVpepper
p2964
I2120
sVhose
p2965
I2928
sVpomeranian
p2966
I181
sVin middle
p2967
I751
sVmitt
p2968
I3080
sVrock
p2969
I1975
sVbathroom
p2970
I2969
sVtelling time
p2971
I2735
sVno shirt
p2972
I1890
sVdiet coke
p2973
I2309
sVpasta
p2974
I752
sVfluorescent
p2975
I2337
sVhiding
p2976
I2539
sViris
p2977
I1710
sVus airways express
p2978
I2540
sVred velvet
p2979
I2338
sVshaking hands
p2980
I562
sVsaddle
p2981
I1517
sVtray
p2982
I3096
sVskatepark
p2983
I1711
sVtaking selfie
p2984
I182
sVhot
p2985
I2357
sVrodeo
p2986
I2736
sVseeds
p2987
I969
sVbeige
p2988
I1892
sVblue and gray
p2989
I382
sVtongue
p2990
I1893
sVferris wheel
p2991
I1490
sVswimming
p2992
I183
sVblack and orange
p2993
I2340
sVowl
p2994
I1518
sVletters
p2995
I184
sVstop sign
p2996
I1519
sVbud light
p2997
I970
sVsocks
p2998
I563
sVmushrooms
p2999
I1150
sVtrunks
p3000
I2199
sVmountain dew
p3001
I1896
sVfemale
p3002
I564
sVon shelf
p3003
I2737
sVagainst wall
p3004
I1495
sVmississippi
p3005
I1151
sVit isn't
p3006
I1496
sV1980
p3007
I1351
sVvegetables
p3008
I2122
sVtents
p3009
I1691
sVfirefighter
p3010
I1352
sVspiral
p3011
I753
sVspots
p3012
I2541
sVcontinental
p3013
I1520
sVpowdered
p3014
I3099
sVcoffee cup
p3015
I754
sVsuzuki
p3016
I1152
sVbackhand
p3017
I1153
sVred bull
p3018
I298
sVivory
p3019
I2929
sVnorth
p3020
I383
sVbus
p3021
I1353
sVhp
p3022
I1154
sVsweatband
p3023
I3122
sVdelivery
p3024
I971
sVconstruction
p3025
I972
sVbun
p3026
I1354
sVbookshelf
p3027
I1355
sVear
p3028
I1897
sVeat
p3029
I1898
sVpolar bears
p3030
I3123
sVj
I1882
sVsmooth
p3031
I973
sVflip
p3032
I567
sVabstract
p3033
I3017
sVvolvo
p3034
I974
sVcarriage
p3035
I1155
sVpartly cloudy
p3036
I2707
sVcake
p3037
I755
sVdisplay
p3038
I385
sVskating
p3039
I2125
sVwebsite
p3040
I1938
sVsupreme
p3041
I2931
sVresting
p3042
I1645
sVon elephant
p3043
I1156
sVcircus
p3044
I568
sVvans
p3045
I2070
sVmaroon
p3046
I756
sVpig
p3047
I2933
sVspace shuttle
p3048
I757
sVutensils
p3049
I1900
sVboardwalk
p3050
I1521
sVbest buy
p3051
I1886
sVpenne
p3052
I2740
sVsweatshirt
p3053
I2905
sVbalcony
p3054
I1157
sVrelaxing
p3055
I2575
sV48
p3056
I2126
sV49
p3057
I2127
sV46
p3058
I2128
sV47
p3059
I2129
sV44
p3060
I2130
sV45
p3061
I2131
sV42
p3062
I374
sV43
p3063
I2133
sV40
p3064
I2134
sV41
p3065
I2135
sVto hit ball
p3066
I1290
sVbook
p3067
I3127
sVoar
p3068
I2136
sVbranch
p3069
I14
sVfinch
p3070
I386
sVgranite
p3071
I1357
sVgas station
p3072
I1358
sVponytail
p3073
I186
sVdresser
p3074
I569
sVjunk
p3075
I3128
sVfrisbee
p3076
I1712
sVstar
p3077
I387
sVcannot tell
p3078
I1713
sVpink and yellow
p3079
I2542
sVfootprints
p3080
I977
sVleft and right
p3081
I758
sVon toilet
p3082
I1522
sVfoil
p3083
I388
sVjetblue
p3084
I2991
sVnintendo
p3085
I1158
sVno 1
p3086
I2935
sVfriends
p3087
I1901
sVghost
p3088
I1714
sVfruit salad
p3089
I1715
sVsamsung
p3090
I389
sV2 feet
p3091
I2741
sVbaker
p3092
I1359
sVparasailing
p3093
I3097
sVblt
p3094
I2410
sVrural
p3095
I978
sVbaked
p3096
I1360
sVbuoy
p3097
I979
s.